
test_app:	file format elf64-littleriscv

Disassembly of section .text:

0000000000011190 <_start>:
   11190: 97 41 00 00  	auipc	gp, 4
   11194: 93 81 01 90  	addi	gp, gp, -1792
   11198: 13 05 01 00  	mv	a0, sp

000000000001119c <.Lpcrel_hi1>:
   1119c: 97 f5 fe ff  	auipc	a1, 1048559
   111a0: 93 85 45 e6  	addi	a1, a1, -412
   111a4: 13 71 01 ff  	andi	sp, sp, -16
   111a8: 6f 00 40 00  	j	0x111ac <_start_c>

00000000000111ac <_start_c>:
   111ac: 83 25 05 00  	lw	a1, 0(a0)
   111b0: 13 06 85 00  	addi	a2, a0, 8
   111b4: 37 25 01 00  	lui	a0, 18
   111b8: 13 05 85 db  	addi	a0, a0, -584
   111bc: b7 16 01 00  	lui	a3, 17
   111c0: 93 86 46 1d  	addi	a3, a3, 468
   111c4: 37 17 01 00  	lui	a4, 17
   111c8: 13 07 87 7b  	addi	a4, a4, 1976
   111cc: 93 07 00 00  	li	a5, 0
   111d0: 6f 00 c0 22  	j	0x113fc <__libc_start_main>

00000000000111d4 <dummy>:
   111d4: 67 80 00 00  	ret

00000000000111d8 <dummy1>:
   111d8: 67 80 00 00  	ret

00000000000111dc <__init_libc>:
   111dc: 13 01 01 e9  	addi	sp, sp, -368
   111e0: 23 34 11 16  	sd	ra, 360(sp)
   111e4: 23 30 81 16  	sd	s0, 352(sp)
   111e8: 23 3c 91 14  	sd	s1, 344(sp)
   111ec: 13 84 05 00  	mv	s0, a1
   111f0: 93 04 05 00  	mv	s1, a0
   111f4: 13 05 81 02  	addi	a0, sp, 40
   111f8: 13 06 00 13  	li	a2, 304
   111fc: 93 05 00 00  	li	a1, 0
   11200: ef 00 d0 25  	jal	0x11c5c <memset>
   11204: 37 45 01 00  	lui	a0, 20
   11208: 23 3c 95 38  	sd	s1, 920(a0)

000000000001120c <.LBB2_1>:
   1120c: 03 b5 04 00  	ld	a0, 0(s1)
   11210: 93 84 84 00  	addi	s1, s1, 8
   11214: e3 1c 05 fe  	bnez	a0, 0x1120c <.LBB2_1>
   11218: 37 45 01 00  	lui	a0, 20
   1121c: 23 34 95 58  	sd	s1, 1416(a0)
   11220: 83 b5 04 00  	ld	a1, 0(s1)
   11224: 63 88 05 04  	beqz	a1, 0x11274 <.LBB2_9>
   11228: 13 85 04 01  	addi	a0, s1, 16
   1122c: 13 06 50 02  	li	a2, 37
   11230: 93 06 81 02  	addi	a3, sp, 40

0000000000011234 <.LBB2_4>:
   11234: 63 6a b6 00  	bltu	a2, a1, 0x11248 <.LBB2_6>
   11238: 03 37 85 ff  	ld	a4, -8(a0)
   1123c: 93 95 35 00  	slli	a1, a1, 3
   11240: b3 85 b6 00  	add	a1, a3, a1
   11244: 23 b0 e5 00  	sd	a4, 0(a1)

0000000000011248 <.LBB2_6>:
   11248: 83 35 05 00  	ld	a1, 0(a0)
   1124c: 13 05 05 01  	addi	a0, a0, 16
   11250: e3 92 05 fe  	bnez	a1, 0x11234 <.LBB2_4>
   11254: 83 35 81 0a  	ld	a1, 168(sp)
   11258: 03 35 81 12  	ld	a0, 296(sp)
   1125c: 37 46 01 00  	lui	a2, 20
   11260: 23 30 b6 3c  	sd	a1, 960(a2)
   11264: 63 0c 05 00  	beqz	a0, 0x1127c <.LBB2_10>
   11268: b7 45 01 00  	lui	a1, 20
   1126c: 23 b4 a5 3a  	sd	a0, 936(a1)
   11270: 6f 00 c0 00  	j	0x1127c <.LBB2_10>

0000000000011274 <.LBB2_9>:
   11274: 37 45 01 00  	lui	a0, 20
   11278: 23 30 05 3c  	sd	zero, 960(a0)

000000000001127c <.LBB2_10>:
   1127c: 03 35 81 05  	ld	a0, 88(sp)
   11280: b7 45 01 00  	lui	a1, 20
   11284: 23 b8 a5 5a  	sd	a0, 1456(a1)
   11288: 63 14 04 00  	bnez	s0, 0x11290 <.LBB2_12>
   1128c: 03 34 01 12  	ld	s0, 288(sp)

0000000000011290 <.LBB2_12>:
   11290: 63 16 04 00  	bnez	s0, 0x1129c <.LBB2_14>
   11294: 37 05 01 00  	lui	a0, 16
   11298: 13 04 85 15  	addi	s0, a0, 344

000000000001129c <.LBB2_14>:
   1129c: 37 45 01 00  	lui	a0, 20
   112a0: 23 3c 85 3a  	sd	s0, 952(a0)
   112a4: 37 45 01 00  	lui	a0, 20
   112a8: 23 38 85 3a  	sd	s0, 944(a0)
   112ac: 93 05 14 00  	addi	a1, s0, 1
   112b0: 13 06 f0 02  	li	a2, 47

00000000000112b4 <.LBB2_15>:
   112b4: 83 c6 f5 ff  	lbu	a3, -1(a1)
   112b8: 63 86 c6 00  	beq	a3, a2, 0x112c4 <.LBB2_17>
   112bc: 63 96 06 00  	bnez	a3, 0x112c8 <.LBB2_18>
   112c0: 6f 00 00 01  	j	0x112d0 <.LBB2_19>

00000000000112c4 <.LBB2_17>:
   112c4: 23 38 b5 3a  	sd	a1, 944(a0)

00000000000112c8 <.LBB2_18>:
   112c8: 93 85 15 00  	addi	a1, a1, 1
   112cc: 6f f0 9f fe  	j	0x112b4 <.LBB2_15>

00000000000112d0 <.LBB2_19>:
   112d0: 13 05 81 02  	addi	a0, sp, 40
   112d4: ef 00 80 33  	jal	0x1160c <static_init_tls>
   112d8: 03 35 01 0f  	ld	a0, 240(sp)
   112dc: ef f0 df ef  	jal	0x111d8 <dummy1>
   112e0: 03 35 01 08  	ld	a0, 128(sp)
   112e4: 83 35 81 08  	ld	a1, 136(sp)
   112e8: 63 1e b5 00  	bne	a0, a1, 0x11304 <.LBB2_21>
   112ec: 03 35 01 09  	ld	a0, 144(sp)
   112f0: 83 35 81 09  	ld	a1, 152(sp)
   112f4: 03 36 01 0e  	ld	a2, 224(sp)
   112f8: 33 45 b5 00  	xor	a0, a0, a1
   112fc: 33 65 c5 00  	or	a0, a0, a2
   11300: 63 0e 05 08  	beqz	a0, 0x1139c <.LBB2_29>

0000000000011304 <.LBB2_21>:
   11304: 13 05 20 00  	li	a0, 2
   11308: 23 30 a1 02  	sd	a0, 32(sp)
   1130c: 13 05 10 00  	li	a0, 1
   11310: 23 3c a1 00  	sd	a0, 24(sp)
   11314: 23 38 01 00  	sd	zero, 16(sp)
   11318: 23 30 01 00  	sd	zero, 0(sp)
   1131c: 23 34 01 00  	sd	zero, 8(sp)
   11320: 93 08 90 04  	li	a7, 73
   11324: 13 05 01 01  	addi	a0, sp, 16
   11328: 93 05 30 00  	li	a1, 3
   1132c: 13 06 01 00  	mv	a2, sp
   11330: 13 07 80 00  	li	a4, 8
   11334: 93 06 00 00  	li	a3, 0
   11338: 73 00 00 00  	ecall	
   1133c: 13 15 05 02  	slli	a0, a0, 32
   11340: 93 06 01 01  	addi	a3, sp, 16
   11344: 63 54 05 00  	bgez	a0, 0x1134c <.LBB2_23>
   11348: 23 00 00 00  	sb	zero, 0(zero)

000000000001134c <.LBB2_23>:
   1134c: 13 07 60 00  	li	a4, 6
   11350: 93 07 e0 01  	li	a5, 30
   11354: 37 05 01 00  	lui	a0, 16
   11358: 93 05 65 16  	addi	a1, a0, 358
   1135c: 37 85 00 00  	lui	a0, 8
   11360: 1b 06 25 00  	addiw	a2, a0, 2
   11364: 93 08 80 03  	li	a7, 56

0000000000011368 <.LBB2_24>:
   11368: 33 85 e6 00  	add	a0, a3, a4
   1136c: 03 45 05 00  	lbu	a0, 0(a0)
   11370: 13 75 05 02  	andi	a0, a0, 32
   11374: 63 0a 05 00  	beqz	a0, 0x11388 <.LBB2_27>
   11378: 13 05 c0 f9  	li	a0, -100
   1137c: 73 00 00 00  	ecall	
   11380: 63 54 05 00  	bgez	a0, 0x11388 <.LBB2_27>
   11384: 23 00 00 00  	sb	zero, 0(zero)

0000000000011388 <.LBB2_27>:
   11388: 13 07 87 00  	addi	a4, a4, 8
   1138c: e3 1e f7 fc  	bne	a4, a5, 0x11368 <.LBB2_24>
   11390: 37 45 01 00  	lui	a0, 20
   11394: 93 05 10 00  	li	a1, 1
   11398: 23 20 b5 58  	sw	a1, 1408(a0)

000000000001139c <.LBB2_29>:
   1139c: 83 30 81 16  	ld	ra, 360(sp)
   113a0: 03 34 01 16  	ld	s0, 352(sp)
   113a4: 83 34 81 15  	ld	s1, 344(sp)
   113a8: 13 01 01 17  	addi	sp, sp, 368
   113ac: 67 80 00 00  	ret

00000000000113b0 <libc_start_init>:
   113b0: 13 01 01 fe  	addi	sp, sp, -32
   113b4: 23 3c 11 00  	sd	ra, 24(sp)
   113b8: 23 38 81 00  	sd	s0, 16(sp)
   113bc: 23 34 91 00  	sd	s1, 8(sp)
   113c0: ef f0 5f e1  	jal	0x111d4 <dummy>
   113c4: 37 15 01 00  	lui	a0, 17
   113c8: 13 04 05 19  	addi	s0, a0, 400
   113cc: 37 15 01 00  	lui	a0, 17
   113d0: 93 04 05 19  	addi	s1, a0, 400
   113d4: 63 fa 84 00  	bgeu	s1, s0, 0x113e8 <.LBB3_2>

00000000000113d8 <.LBB3_1>:
   113d8: 03 b5 04 00  	ld	a0, 0(s1)
   113dc: e7 00 05 00  	jalr	a0
   113e0: 93 84 84 00  	addi	s1, s1, 8
   113e4: e3 ea 84 fe  	bltu	s1, s0, 0x113d8 <.LBB3_1>

00000000000113e8 <.LBB3_2>:
   113e8: 83 30 81 01  	ld	ra, 24(sp)
   113ec: 03 34 01 01  	ld	s0, 16(sp)
   113f0: 83 34 81 00  	ld	s1, 8(sp)
   113f4: 13 01 01 02  	addi	sp, sp, 32
   113f8: 67 80 00 00  	ret

00000000000113fc <__libc_start_main>:
   113fc: 13 01 01 fe  	addi	sp, sp, -32
   11400: 23 3c 11 00  	sd	ra, 24(sp)
   11404: 23 38 81 00  	sd	s0, 16(sp)
   11408: 23 34 91 00  	sd	s1, 8(sp)
   1140c: 23 30 21 01  	sd	s2, 0(sp)
   11410: 13 04 06 00  	mv	s0, a2
   11414: 93 84 05 00  	mv	s1, a1
   11418: 13 09 05 00  	mv	s2, a0
   1141c: 83 35 06 00  	ld	a1, 0(a2)
   11420: 13 95 34 00  	slli	a0, s1, 3
   11424: 33 05 a6 00  	add	a0, a2, a0
   11428: 13 05 85 00  	addi	a0, a0, 8
   1142c: ef f0 1f db  	jal	0x111dc <__init_libc>
   11430: 37 15 01 00  	lui	a0, 17
   11434: 13 03 c5 45  	addi	t1, a0, 1116
   11438: 13 05 09 00  	mv	a0, s2
   1143c: 93 85 04 00  	mv	a1, s1
   11440: 13 06 04 00  	mv	a2, s0
   11444: 83 30 81 01  	ld	ra, 24(sp)
   11448: 03 34 01 01  	ld	s0, 16(sp)
   1144c: 83 34 81 00  	ld	s1, 8(sp)
   11450: 03 39 01 00  	ld	s2, 0(sp)
   11454: 13 01 01 02  	addi	sp, sp, 32
   11458: 67 00 03 00  	jr	t1

000000000001145c <libc_start_main_stage2>:
   1145c: 13 01 01 fd  	addi	sp, sp, -48
   11460: 23 34 11 02  	sd	ra, 40(sp)
   11464: 23 30 81 02  	sd	s0, 32(sp)
   11468: 23 3c 91 00  	sd	s1, 24(sp)
   1146c: 23 38 21 01  	sd	s2, 16(sp)
   11470: 23 34 31 01  	sd	s3, 8(sp)
   11474: 13 04 06 00  	mv	s0, a2
   11478: 93 84 05 00  	mv	s1, a1
   1147c: 13 09 05 00  	mv	s2, a0
   11480: 13 95 35 00  	slli	a0, a1, 3
   11484: 33 05 a6 00  	add	a0, a2, a0
   11488: 93 09 85 00  	addi	s3, a0, 8
   1148c: ef f0 5f f2  	jal	0x113b0 <libc_start_init>
   11490: 13 85 04 00  	mv	a0, s1
   11494: 93 05 04 00  	mv	a1, s0
   11498: 13 86 09 00  	mv	a2, s3
   1149c: e7 00 09 00  	jalr	s2
   114a0: ef 00 80 36  	jal	0x11808 <exit>

00000000000114a4 <__init_tp>:
   114a4: 13 01 01 ff  	addi	sp, sp, -16
   114a8: 23 34 11 00  	sd	ra, 8(sp)
   114ac: 23 30 81 00  	sd	s0, 0(sp)
   114b0: 13 04 05 00  	mv	s0, a0
   114b4: 23 30 a5 00  	sd	a0, 0(a0)
   114b8: 13 05 05 0e  	addi	a0, a0, 224
   114bc: ef 00 d0 0c  	jal	0x11d88 <__set_thread_area>
   114c0: 63 40 05 06  	bltz	a0, 0x11520 <.LBB0_4>
   114c4: 63 18 05 00  	bnez	a0, 0x114d4 <.LBB0_3>
   114c8: 37 45 01 00  	lui	a0, 20
   114cc: 93 05 10 00  	li	a1, 1
   114d0: 23 2c b5 56  	sw	a1, 1400(a0)

00000000000114d4 <.LBB0_3>:
   114d4: 13 05 10 00  	li	a0, 1
   114d8: 23 20 a4 04  	sw	a0, 64(s0)
   114dc: 37 45 01 00  	lui	a0, 20
   114e0: 13 05 05 3a  	addi	a0, a0, 928
   114e4: 93 08 00 06  	li	a7, 96
   114e8: 73 00 00 00  	ecall	
   114ec: 23 2c a4 02  	sw	a0, 56(s0)
   114f0: 37 45 01 00  	lui	a0, 20
   114f4: 13 05 85 5b  	addi	a0, a0, 1464
   114f8: 23 38 a4 0a  	sd	a0, 176(s0)
   114fc: 13 05 04 09  	addi	a0, s0, 144
   11500: 23 38 a4 08  	sd	a0, 144(s0)
   11504: 37 45 01 00  	lui	a0, 20
   11508: 83 35 85 3a  	ld	a1, 936(a0)
   1150c: 13 05 00 00  	li	a0, 0
   11510: 23 30 b4 02  	sd	a1, 32(s0)
   11514: 23 38 84 00  	sd	s0, 16(s0)
   11518: 23 3c 84 00  	sd	s0, 24(s0)
   1151c: 6f 00 80 00  	j	0x11524 <.LBB0_5>

0000000000011520 <.LBB0_4>:
   11520: 13 05 f0 ff  	li	a0, -1

0000000000011524 <.LBB0_5>:
   11524: 83 30 81 00  	ld	ra, 8(sp)
   11528: 03 34 01 00  	ld	s0, 0(sp)
   1152c: 13 01 01 01  	addi	sp, sp, 16
   11530: 67 80 00 00  	ret

0000000000011534 <__copy_tls>:
   11534: 13 01 01 fd  	addi	sp, sp, -48
   11538: 23 34 11 02  	sd	ra, 40(sp)
   1153c: 23 30 81 02  	sd	s0, 32(sp)
   11540: 23 3c 91 00  	sd	s1, 24(sp)
   11544: 23 38 21 01  	sd	s2, 16(sp)
   11548: 23 34 31 01  	sd	s3, 8(sp)
   1154c: 23 30 41 01  	sd	s4, 0(sp)
   11550: b7 45 01 00  	lui	a1, 20
   11554: 93 86 85 57  	addi	a3, a1, 1400
   11558: 03 b6 06 02  	ld	a2, 32(a3)
   1155c: 83 b5 06 03  	ld	a1, 48(a3)
   11560: 33 07 c5 00  	add	a4, a0, a2
   11564: 93 c7 f5 ff  	not	a5, a1
   11568: 93 97 37 00  	slli	a5, a5, 3
   1156c: b3 04 f7 00  	add	s1, a4, a5
   11570: 03 b7 86 02  	ld	a4, 40(a3)
   11574: 93 07 00 f2  	li	a5, -224
   11578: 03 b9 86 01  	ld	s2, 24(a3)
   1157c: b3 86 a7 40  	sub	a3, a5, a0
   11580: 13 07 f7 ff  	addi	a4, a4, -1
   11584: b3 76 d7 00  	and	a3, a4, a3
   11588: 33 04 d5 00  	add	s0, a0, a3
   1158c: 63 08 09 04  	beqz	s2, 0x115dc <.LBB1_4>
   11590: 93 09 04 0e  	addi	s3, s0, 224
   11594: 93 95 35 00  	slli	a1, a1, 3
   11598: b3 05 b6 40  	sub	a1, a2, a1
   1159c: 33 0a b5 00  	add	s4, a0, a1

00000000000115a0 <.LBB1_2>:
   115a0: 03 35 89 02  	ld	a0, 40(s2)
   115a4: 33 85 a9 00  	add	a0, s3, a0
   115a8: 13 05 f5 7f  	addi	a0, a0, 2047
   115ac: 13 05 15 00  	addi	a0, a0, 1
   115b0: 23 30 aa 00  	sd	a0, 0(s4)
   115b4: 03 35 89 02  	ld	a0, 40(s2)
   115b8: 83 35 89 00  	ld	a1, 8(s2)
   115bc: 03 36 09 01  	ld	a2, 16(s2)
   115c0: 33 85 a9 00  	add	a0, s3, a0
   115c4: ef 00 40 28  	jal	0x11848 <memcpy>
   115c8: 03 39 09 00  	ld	s2, 0(s2)
   115cc: 13 0a 8a 00  	addi	s4, s4, 8
   115d0: e3 18 09 fc  	bnez	s2, 0x115a0 <.LBB1_2>
   115d4: 37 45 01 00  	lui	a0, 20
   115d8: 83 35 85 5a  	ld	a1, 1448(a0)

00000000000115dc <.LBB1_4>:
   115dc: 23 b0 b4 00  	sd	a1, 0(s1)
   115e0: 23 3c 94 0c  	sd	s1, 216(s0)
   115e4: 23 34 94 00  	sd	s1, 8(s0)
   115e8: 13 05 04 00  	mv	a0, s0
   115ec: 83 30 81 02  	ld	ra, 40(sp)
   115f0: 03 34 01 02  	ld	s0, 32(sp)
   115f4: 83 34 81 01  	ld	s1, 24(sp)
   115f8: 03 39 01 01  	ld	s2, 16(sp)
   115fc: 83 39 81 00  	ld	s3, 8(sp)
   11600: 03 3a 01 00  	ld	s4, 0(sp)
   11604: 13 01 01 03  	addi	sp, sp, 48
   11608: 67 80 00 00  	ret

000000000001160c <static_init_tls>:
   1160c: 13 01 01 ff  	addi	sp, sp, -16
   11610: 23 34 11 00  	sd	ra, 8(sp)
   11614: 83 35 85 02  	ld	a1, 40(a0)
   11618: 63 84 05 0e  	beqz	a1, 0x11700 <.LBB2_17>
   1161c: 13 06 00 00  	li	a2, 0
   11620: 13 0e 00 00  	li	t3, 0
   11624: 83 36 85 01  	ld	a3, 24(a0)
   11628: 03 35 05 02  	ld	a0, 32(a0)
   1162c: 13 07 60 00  	li	a4, 6
   11630: b7 07 00 00  	lui	a5, 0
   11634: 93 87 07 00  	mv	a5, a5
   11638: 13 b8 17 00  	seqz	a6, a5
   1163c: 93 08 70 00  	li	a7, 7
   11640: b7 e2 74 64  	lui	t0, 411470
   11644: 9b 82 12 55  	addiw	t0, t0, 1361
   11648: 37 43 01 00  	lui	t1, 20
   1164c: 93 83 06 00  	mv	t2, a3

0000000000011650 <.LBB2_2>:
   11650: 03 af 03 00  	lw	t5, 0(t2)
   11654: 63 18 ef 00  	bne	t5, a4, 0x11664 <.LBB2_4>
   11658: 03 b6 03 01  	ld	a2, 16(t2)
   1165c: 33 86 c6 40  	sub	a2, a3, a2
   11660: 6f 00 00 05  	j	0x116b0 <.LBB2_14>

0000000000011664 <.LBB2_4>:
   11664: 93 0e ef ff  	addi	t4, t5, -2
   11668: b3 3e d0 01  	snez	t4, t4
   1166c: b3 ee 0e 01  	or	t4, t4, a6
   11670: 63 8c 0e 02  	beqz	t4, 0x116a8 <.LBB2_13>
   11674: 93 8e 03 00  	mv	t4, t2
   11678: 63 04 1f 01  	beq	t5, a7, 0x11680 <.LBB2_7>
   1167c: 93 0e 0e 00  	mv	t4, t3

0000000000011680 <.LBB2_7>:
   11680: 63 10 5f 02  	bne	t5, t0, 0x116a0 <.LBB2_12>
   11684: 03 be 83 02  	ld	t3, 40(t2)
   11688: 03 6f 03 29  	lwu	t5, 656(t1)
   1168c: 63 7a cf 01  	bgeu	t5, t3, 0x116a0 <.LBB2_12>
   11690: 37 0f 80 00  	lui	t5, 2048
   11694: 63 64 ee 01  	bltu	t3, t5, 0x1169c <.LBB2_11>
   11698: 37 0e 80 00  	lui	t3, 2048

000000000001169c <.LBB2_11>:
   1169c: 23 28 c3 29  	sw	t3, 656(t1)

00000000000116a0 <.LBB2_12>:
   116a0: 13 8e 0e 00  	mv	t3, t4
   116a4: 6f 00 c0 00  	j	0x116b0 <.LBB2_14>

00000000000116a8 <.LBB2_13>:
   116a8: 03 b6 03 01  	ld	a2, 16(t2)
   116ac: 33 86 c7 40  	sub	a2, a5, a2

00000000000116b0 <.LBB2_14>:
   116b0: 93 85 f5 ff  	addi	a1, a1, -1
   116b4: b3 83 a3 00  	add	t2, t2, a0
   116b8: e3 9c 05 f8  	bnez	a1, 0x11650 <.LBB2_2>
   116bc: 63 02 0e 04  	beqz	t3, 0x11700 <.LBB2_17>
   116c0: 03 35 0e 01  	ld	a0, 16(t3)
   116c4: b3 05 c5 00  	add	a1, a0, a2
   116c8: 37 45 01 00  	lui	a0, 20
   116cc: 93 06 05 3e  	addi	a3, a0, 992
   116d0: 23 b4 b6 00  	sd	a1, 8(a3)
   116d4: 03 35 0e 02  	ld	a0, 32(t3)
   116d8: 23 b8 a6 00  	sd	a0, 16(a3)
   116dc: 03 35 0e 03  	ld	a0, 48(t3)
   116e0: 03 36 8e 02  	ld	a2, 40(t3)
   116e4: 23 b0 a6 02  	sd	a0, 32(a3)
   116e8: 37 47 01 00  	lui	a4, 20
   116ec: 13 07 87 57  	addi	a4, a4, 1400
   116f0: 93 07 10 00  	li	a5, 1
   116f4: 23 38 f7 02  	sd	a5, 48(a4)
   116f8: 23 3c d7 00  	sd	a3, 24(a4)
   116fc: 6f 00 80 01  	j	0x11714 <.LBB2_18>

0000000000011700 <.LBB2_17>:
   11700: 37 45 01 00  	lui	a0, 20
   11704: 93 05 05 3e  	addi	a1, a0, 992
   11708: 03 b5 05 02  	ld	a0, 32(a1)
   1170c: 03 b6 85 01  	ld	a2, 24(a1)
   11710: 83 b5 85 00  	ld	a1, 8(a1)

0000000000011714 <.LBB2_18>:
   11714: b3 06 b6 00  	add	a3, a2, a1
   11718: b3 06 d0 40  	neg	a3, a3
   1171c: 13 07 f5 ff  	addi	a4, a0, -1
   11720: b3 76 d7 00  	and	a3, a4, a3
   11724: 33 86 c6 00  	add	a2, a3, a2
   11728: b7 46 01 00  	lui	a3, 20
   1172c: 93 86 06 3e  	addi	a3, a3, 992
   11730: 23 bc c6 00  	sd	a2, 24(a3)
   11734: b3 75 b7 00  	and	a1, a4, a1
   11738: 13 07 70 00  	li	a4, 7
   1173c: 23 b4 b6 02  	sd	a1, 40(a3)
   11740: 63 66 a7 00  	bltu	a4, a0, 0x1174c <.LBB2_20>
   11744: 13 05 80 00  	li	a0, 8
   11748: 23 b0 a6 02  	sd	a0, 32(a3)

000000000001174c <.LBB2_20>:
   1174c: b7 46 01 00  	lui	a3, 20
   11750: 93 86 86 57  	addi	a3, a3, 1400
   11754: 23 b4 a6 02  	sd	a0, 40(a3)
   11758: b3 85 c5 00  	add	a1, a1, a2
   1175c: 33 85 a5 00  	add	a0, a1, a0
   11760: 13 05 75 0f  	addi	a0, a0, 247
   11764: 93 75 85 ff  	andi	a1, a0, -8
   11768: 13 05 90 16  	li	a0, 361
   1176c: 23 b0 b6 02  	sd	a1, 32(a3)
   11770: 63 e2 a5 02  	bltu	a1, a0, 0x11794 <.LBB2_22>
   11774: 93 08 e0 0d  	li	a7, 222
   11778: 13 06 30 00  	li	a2, 3
   1177c: 93 06 20 02  	li	a3, 34
   11780: 13 07 f0 ff  	li	a4, -1
   11784: 13 05 00 00  	li	a0, 0
   11788: 93 07 00 00  	li	a5, 0
   1178c: 73 00 00 00  	ecall	
   11790: 6f 00 c0 00  	j	0x1179c <.LBB2_23>

0000000000011794 <.LBB2_22>:
   11794: 37 45 01 00  	lui	a0, 20
   11798: 13 05 05 41  	addi	a0, a0, 1040

000000000001179c <.LBB2_23>:
   1179c: ef f0 9f d9  	jal	0x11534 <__copy_tls>
   117a0: ef f0 5f d0  	jal	0x114a4 <__init_tp>
   117a4: 63 54 05 00  	bgez	a0, 0x117ac <.LBB2_25>
   117a8: 23 00 00 00  	sb	zero, 0(zero)

00000000000117ac <.LBB2_25>:
   117ac: 83 30 81 00  	ld	ra, 8(sp)
   117b0: 13 01 01 01  	addi	sp, sp, 16
   117b4: 67 80 00 00  	ret

00000000000117b8 <dummy>:
   117b8: 67 80 00 00  	ret

00000000000117bc <libc_exit_fini>:
   117bc: 13 01 01 fe  	addi	sp, sp, -32
   117c0: 23 3c 11 00  	sd	ra, 24(sp)
   117c4: 23 38 81 00  	sd	s0, 16(sp)
   117c8: 23 34 91 00  	sd	s1, 8(sp)
   117cc: 37 15 01 00  	lui	a0, 17
   117d0: 13 05 05 19  	addi	a0, a0, 400
   117d4: b7 15 01 00  	lui	a1, 17
   117d8: 13 84 05 19  	addi	s0, a1, 400
   117dc: 63 7c a4 00  	bgeu	s0, a0, 0x117f4 <.LBB1_2>

00000000000117e0 <.LBB1_1>:
   117e0: 83 35 85 ff  	ld	a1, -8(a0)
   117e4: 93 04 85 ff  	addi	s1, a0, -8
   117e8: e7 80 05 00  	jalr	a1
   117ec: 13 85 04 00  	mv	a0, s1
   117f0: e3 68 94 fe  	bltu	s0, s1, 0x117e0 <.LBB1_1>

00000000000117f4 <.LBB1_2>:
   117f4: 83 30 81 01  	ld	ra, 24(sp)
   117f8: 03 34 01 01  	ld	s0, 16(sp)
   117fc: 83 34 81 00  	ld	s1, 8(sp)
   11800: 13 01 01 02  	addi	sp, sp, 32
   11804: 6f f0 5f fb  	j	0x117b8 <dummy>

0000000000011808 <exit>:
   11808: 13 01 01 ff  	addi	sp, sp, -16
   1180c: 23 34 11 00  	sd	ra, 8(sp)
   11810: 23 30 81 00  	sd	s0, 0(sp)
   11814: 13 04 05 00  	mv	s0, a0
   11818: ef f0 1f fa  	jal	0x117b8 <dummy>
   1181c: ef f0 1f fa  	jal	0x117bc <libc_exit_fini>
   11820: ef 00 10 50  	jal	0x12520 <__stdio_exit_needed>
   11824: 13 05 04 00  	mv	a0, s0
   11828: ef 00 40 00  	jal	0x1182c <_Exit>

000000000001182c <_Exit>:
   1182c: 93 05 05 00  	mv	a1, a0
   11830: 93 08 e0 05  	li	a7, 94
   11834: 73 00 00 00  	ecall	
   11838: 93 08 d0 05  	li	a7, 93

000000000001183c <.LBB0_1>:
   1183c: 13 85 05 00  	mv	a0, a1
   11840: 73 00 00 00  	ecall	
   11844: 6f f0 9f ff  	j	0x1183c <.LBB0_1>

0000000000011848 <memcpy>:
   11848: 93 f6 35 00  	andi	a3, a1, 3
   1184c: 93 b6 16 00  	seqz	a3, a3
   11850: 13 37 16 00  	seqz	a4, a2
   11854: b3 e6 e6 00  	or	a3, a3, a4
   11858: 63 90 06 10  	bnez	a3, 0x11958 <.LBB0_11>
   1185c: 93 87 15 00  	addi	a5, a1, 1
   11860: 13 08 05 00  	mv	a6, a0

0000000000011864 <.LBB0_2>:
   11864: 83 88 05 00  	lb	a7, 0(a1)
   11868: 13 87 15 00  	addi	a4, a1, 1
   1186c: 93 06 18 00  	addi	a3, a6, 1
   11870: 23 00 18 01  	sb	a7, 0(a6)
   11874: 13 06 f6 ff  	addi	a2, a2, -1
   11878: 93 f5 37 00  	andi	a1, a5, 3
   1187c: b3 35 b0 00  	snez	a1, a1
   11880: 33 38 c0 00  	snez	a6, a2
   11884: b3 f8 05 01  	and	a7, a1, a6
   11888: 93 87 17 00  	addi	a5, a5, 1
   1188c: 93 05 07 00  	mv	a1, a4
   11890: 13 88 06 00  	mv	a6, a3
   11894: e3 98 08 fc  	bnez	a7, 0x11864 <.LBB0_2>
   11898: 93 f5 36 00  	andi	a1, a3, 3
   1189c: 63 86 05 0c  	beqz	a1, 0x11968 <.LBB0_12>

00000000000118a0 <.LBB0_4>:
   118a0: 93 07 00 02  	li	a5, 32
   118a4: 63 6c f6 1a  	bltu	a2, a5, 0x11a5c <.LBB0_22>
   118a8: 93 07 30 00  	li	a5, 3
   118ac: 63 8a f5 12  	beq	a1, a5, 0x119e0 <.LBB0_19>
   118b0: 93 07 20 00  	li	a5, 2
   118b4: 63 88 f5 22  	beq	a1, a5, 0x11ae4 <.LBB0_31>
   118b8: 93 07 10 00  	li	a5, 1
   118bc: 63 90 f5 1a  	bne	a1, a5, 0x11a5c <.LBB0_22>
   118c0: 83 27 07 00  	lw	a5, 0(a4)
   118c4: 23 80 f6 00  	sb	a5, 0(a3)
   118c8: 93 d5 87 00  	srli	a1, a5, 8
   118cc: a3 80 b6 00  	sb	a1, 1(a3)
   118d0: 93 d5 07 01  	srli	a1, a5, 16
   118d4: 23 81 b6 00  	sb	a1, 2(a3)
   118d8: 93 86 36 00  	addi	a3, a3, 3
   118dc: 13 06 d6 ff  	addi	a2, a2, -3
   118e0: 93 05 07 01  	addi	a1, a4, 16
   118e4: 13 07 00 01  	li	a4, 16

00000000000118e8 <.LBB0_9>:
   118e8: 03 a8 45 ff  	lw	a6, -12(a1)
   118ec: 9b d7 87 01  	srliw	a5, a5, 24
   118f0: 93 18 88 00  	slli	a7, a6, 8
   118f4: 83 a2 85 ff  	lw	t0, -8(a1)
   118f8: b3 e7 f8 00  	or	a5, a7, a5
   118fc: 23 a0 f6 00  	sw	a5, 0(a3)
   11900: 9b 57 88 01  	srliw	a5, a6, 24
   11904: 13 98 82 00  	slli	a6, t0, 8
   11908: 83 a8 c5 ff  	lw	a7, -4(a1)
   1190c: b3 67 f8 00  	or	a5, a6, a5
   11910: 23 a2 f6 00  	sw	a5, 4(a3)
   11914: 1b d8 82 01  	srliw	a6, t0, 24
   11918: 93 92 88 00  	slli	t0, a7, 8
   1191c: 83 a7 05 00  	lw	a5, 0(a1)
   11920: 33 e8 02 01  	or	a6, t0, a6
   11924: 23 a4 06 01  	sw	a6, 8(a3)
   11928: 1b d8 88 01  	srliw	a6, a7, 24
   1192c: 93 98 87 00  	slli	a7, a5, 8
   11930: 33 e8 08 01  	or	a6, a7, a6
   11934: 23 a6 06 01  	sw	a6, 12(a3)
   11938: 93 86 06 01  	addi	a3, a3, 16
   1193c: 13 06 06 ff  	addi	a2, a2, -16
   11940: 93 85 05 01  	addi	a1, a1, 16
   11944: e3 62 c7 fa  	bltu	a4, a2, 0x118e8 <.LBB0_9>
   11948: 13 87 35 ff  	addi	a4, a1, -13
   1194c: 93 75 06 01  	andi	a1, a2, 16
   11950: 63 8a 05 10  	beqz	a1, 0x11a64 <.LBB0_23>
   11954: 6f 00 c0 21  	j	0x11b70 <.LBB0_34>

0000000000011958 <.LBB0_11>:
   11958: 93 06 05 00  	mv	a3, a0
   1195c: 13 87 05 00  	mv	a4, a1
   11960: 93 f5 36 00  	andi	a1, a3, 3
   11964: e3 9e 05 f2  	bnez	a1, 0x118a0 <.LBB0_4>

0000000000011968 <.LBB0_12>:
   11968: 93 05 00 01  	li	a1, 16
   1196c: 63 6c b6 02  	bltu	a2, a1, 0x119a4 <.LBB0_15>
   11970: 93 05 f0 00  	li	a1, 15

0000000000011974 <.LBB0_14>:
   11974: 83 27 07 00  	lw	a5, 0(a4)
   11978: 03 28 47 00  	lw	a6, 4(a4)
   1197c: 83 28 87 00  	lw	a7, 8(a4)
   11980: 83 22 c7 00  	lw	t0, 12(a4)
   11984: 23 a0 f6 00  	sw	a5, 0(a3)
   11988: 23 a2 06 01  	sw	a6, 4(a3)
   1198c: 23 a4 16 01  	sw	a7, 8(a3)
   11990: 23 a6 56 00  	sw	t0, 12(a3)
   11994: 13 07 07 01  	addi	a4, a4, 16
   11998: 13 06 06 ff  	addi	a2, a2, -16
   1199c: 93 86 06 01  	addi	a3, a3, 16
   119a0: e3 ea c5 fc  	bltu	a1, a2, 0x11974 <.LBB0_14>

00000000000119a4 <.LBB0_15>:
   119a4: 93 75 86 00  	andi	a1, a2, 8
   119a8: 63 8e 05 00  	beqz	a1, 0x119c4 <.LBB0_17>
   119ac: 83 25 07 00  	lw	a1, 0(a4)
   119b0: 83 27 47 00  	lw	a5, 4(a4)
   119b4: 23 a0 b6 00  	sw	a1, 0(a3)
   119b8: 23 a2 f6 00  	sw	a5, 4(a3)
   119bc: 93 86 86 00  	addi	a3, a3, 8
   119c0: 13 07 87 00  	addi	a4, a4, 8

00000000000119c4 <.LBB0_17>:
   119c4: 93 75 46 00  	andi	a1, a2, 4
   119c8: 63 8c 05 0c  	beqz	a1, 0x11aa0 <.LBB0_26>
   119cc: 83 25 07 00  	lw	a1, 0(a4)
   119d0: 23 a0 b6 00  	sw	a1, 0(a3)
   119d4: 93 86 46 00  	addi	a3, a3, 4
   119d8: 13 07 47 00  	addi	a4, a4, 4
   119dc: 6f 00 40 0c  	j	0x11aa0 <.LBB0_26>

00000000000119e0 <.LBB0_19>:
   119e0: 83 27 07 00  	lw	a5, 0(a4)
   119e4: 23 80 f6 00  	sb	a5, 0(a3)
   119e8: 93 86 16 00  	addi	a3, a3, 1
   119ec: 13 06 f6 ff  	addi	a2, a2, -1
   119f0: 93 05 07 01  	addi	a1, a4, 16
   119f4: 13 07 20 01  	li	a4, 18

00000000000119f8 <.LBB0_20>:
   119f8: 03 a8 45 ff  	lw	a6, -12(a1)
   119fc: 9b d7 87 00  	srliw	a5, a5, 8
   11a00: 93 18 88 01  	slli	a7, a6, 24
   11a04: 83 a2 85 ff  	lw	t0, -8(a1)
   11a08: b3 e7 f8 00  	or	a5, a7, a5
   11a0c: 23 a0 f6 00  	sw	a5, 0(a3)
   11a10: 9b 57 88 00  	srliw	a5, a6, 8
   11a14: 13 98 82 01  	slli	a6, t0, 24
   11a18: 83 a8 c5 ff  	lw	a7, -4(a1)
   11a1c: b3 67 f8 00  	or	a5, a6, a5
   11a20: 23 a2 f6 00  	sw	a5, 4(a3)
   11a24: 1b d8 82 00  	srliw	a6, t0, 8
   11a28: 93 92 88 01  	slli	t0, a7, 24
   11a2c: 83 a7 05 00  	lw	a5, 0(a1)
   11a30: 33 e8 02 01  	or	a6, t0, a6
   11a34: 23 a4 06 01  	sw	a6, 8(a3)
   11a38: 1b d8 88 00  	srliw	a6, a7, 8
   11a3c: 93 98 87 01  	slli	a7, a5, 24
   11a40: 33 e8 08 01  	or	a6, a7, a6
   11a44: 23 a6 06 01  	sw	a6, 12(a3)
   11a48: 93 86 06 01  	addi	a3, a3, 16
   11a4c: 13 06 06 ff  	addi	a2, a2, -16
   11a50: 93 85 05 01  	addi	a1, a1, 16
   11a54: e3 62 c7 fa  	bltu	a4, a2, 0x119f8 <.LBB0_20>
   11a58: 13 87 15 ff  	addi	a4, a1, -15

0000000000011a5c <.LBB0_22>:
   11a5c: 93 75 06 01  	andi	a1, a2, 16
   11a60: 63 98 05 10  	bnez	a1, 0x11b70 <.LBB0_34>

0000000000011a64 <.LBB0_23>:
   11a64: 93 75 86 00  	andi	a1, a2, 8
   11a68: 63 9e 05 18  	bnez	a1, 0x11c04 <.LBB0_35>

0000000000011a6c <.LBB0_24>:
   11a6c: 93 75 46 00  	andi	a1, a2, 4
   11a70: 63 88 05 02  	beqz	a1, 0x11aa0 <.LBB0_26>

0000000000011a74 <.LBB0_25>:
   11a74: 83 05 07 00  	lb	a1, 0(a4)
   11a78: 83 07 17 00  	lb	a5, 1(a4)
   11a7c: 03 08 27 00  	lb	a6, 2(a4)
   11a80: 23 80 b6 00  	sb	a1, 0(a3)
   11a84: a3 80 f6 00  	sb	a5, 1(a3)
   11a88: 83 05 37 00  	lb	a1, 3(a4)
   11a8c: 23 81 06 01  	sb	a6, 2(a3)
   11a90: 13 07 47 00  	addi	a4, a4, 4
   11a94: 93 87 46 00  	addi	a5, a3, 4
   11a98: a3 81 b6 00  	sb	a1, 3(a3)
   11a9c: 93 86 07 00  	mv	a3, a5

0000000000011aa0 <.LBB0_26>:
   11aa0: 93 75 26 00  	andi	a1, a2, 2
   11aa4: 63 98 05 00  	bnez	a1, 0x11ab4 <.LBB0_29>
   11aa8: 93 75 16 00  	andi	a1, a2, 1
   11aac: 63 96 05 02  	bnez	a1, 0x11ad8 <.LBB0_30>

0000000000011ab0 <.LBB0_28>:
   11ab0: 67 80 00 00  	ret

0000000000011ab4 <.LBB0_29>:
   11ab4: 83 05 07 00  	lb	a1, 0(a4)
   11ab8: 83 07 17 00  	lb	a5, 1(a4)
   11abc: 23 80 b6 00  	sb	a1, 0(a3)
   11ac0: 13 07 27 00  	addi	a4, a4, 2
   11ac4: 93 85 26 00  	addi	a1, a3, 2
   11ac8: a3 80 f6 00  	sb	a5, 1(a3)
   11acc: 93 86 05 00  	mv	a3, a1
   11ad0: 93 75 16 00  	andi	a1, a2, 1
   11ad4: e3 8e 05 fc  	beqz	a1, 0x11ab0 <.LBB0_28>

0000000000011ad8 <.LBB0_30>:
   11ad8: 83 05 07 00  	lb	a1, 0(a4)
   11adc: 23 80 b6 00  	sb	a1, 0(a3)
   11ae0: 67 80 00 00  	ret

0000000000011ae4 <.LBB0_31>:
   11ae4: 83 27 07 00  	lw	a5, 0(a4)
   11ae8: 23 80 f6 00  	sb	a5, 0(a3)
   11aec: 93 d5 87 00  	srli	a1, a5, 8
   11af0: a3 80 b6 00  	sb	a1, 1(a3)
   11af4: 93 86 26 00  	addi	a3, a3, 2
   11af8: 13 06 e6 ff  	addi	a2, a2, -2
   11afc: 93 05 07 01  	addi	a1, a4, 16
   11b00: 13 07 10 01  	li	a4, 17

0000000000011b04 <.LBB0_32>:
   11b04: 03 a8 45 ff  	lw	a6, -12(a1)
   11b08: 9b d7 07 01  	srliw	a5, a5, 16
   11b0c: 93 18 08 01  	slli	a7, a6, 16
   11b10: 83 a2 85 ff  	lw	t0, -8(a1)
   11b14: b3 e7 f8 00  	or	a5, a7, a5
   11b18: 23 a0 f6 00  	sw	a5, 0(a3)
   11b1c: 9b 57 08 01  	srliw	a5, a6, 16
   11b20: 13 98 02 01  	slli	a6, t0, 16
   11b24: 83 a8 c5 ff  	lw	a7, -4(a1)
   11b28: b3 67 f8 00  	or	a5, a6, a5
   11b2c: 23 a2 f6 00  	sw	a5, 4(a3)
   11b30: 1b d8 02 01  	srliw	a6, t0, 16
   11b34: 93 92 08 01  	slli	t0, a7, 16
   11b38: 83 a7 05 00  	lw	a5, 0(a1)
   11b3c: 33 e8 02 01  	or	a6, t0, a6
   11b40: 23 a4 06 01  	sw	a6, 8(a3)
   11b44: 1b d8 08 01  	srliw	a6, a7, 16
   11b48: 93 98 07 01  	slli	a7, a5, 16
   11b4c: 33 e8 08 01  	or	a6, a7, a6
   11b50: 23 a6 06 01  	sw	a6, 12(a3)
   11b54: 93 86 06 01  	addi	a3, a3, 16
   11b58: 13 06 06 ff  	addi	a2, a2, -16
   11b5c: 93 85 05 01  	addi	a1, a1, 16
   11b60: e3 62 c7 fa  	bltu	a4, a2, 0x11b04 <.LBB0_32>
   11b64: 13 87 25 ff  	addi	a4, a1, -14
   11b68: 93 75 06 01  	andi	a1, a2, 16
   11b6c: e3 8c 05 ee  	beqz	a1, 0x11a64 <.LBB0_23>

0000000000011b70 <.LBB0_34>:
   11b70: 83 05 07 00  	lb	a1, 0(a4)
   11b74: 83 07 17 00  	lb	a5, 1(a4)
   11b78: 03 08 27 00  	lb	a6, 2(a4)
   11b7c: 23 80 b6 00  	sb	a1, 0(a3)
   11b80: a3 80 f6 00  	sb	a5, 1(a3)
   11b84: 83 05 37 00  	lb	a1, 3(a4)
   11b88: 23 81 06 01  	sb	a6, 2(a3)
   11b8c: 83 07 47 00  	lb	a5, 4(a4)
   11b90: 03 08 57 00  	lb	a6, 5(a4)
   11b94: a3 81 b6 00  	sb	a1, 3(a3)
   11b98: 83 05 67 00  	lb	a1, 6(a4)
   11b9c: 23 82 f6 00  	sb	a5, 4(a3)
   11ba0: a3 82 06 01  	sb	a6, 5(a3)
   11ba4: 83 07 77 00  	lb	a5, 7(a4)
   11ba8: 23 83 b6 00  	sb	a1, 6(a3)
   11bac: 83 05 87 00  	lb	a1, 8(a4)
   11bb0: 03 08 97 00  	lb	a6, 9(a4)
   11bb4: a3 83 f6 00  	sb	a5, 7(a3)
   11bb8: 83 07 a7 00  	lb	a5, 10(a4)
   11bbc: 23 84 b6 00  	sb	a1, 8(a3)
   11bc0: a3 84 06 01  	sb	a6, 9(a3)
   11bc4: 83 05 b7 00  	lb	a1, 11(a4)
   11bc8: 23 85 f6 00  	sb	a5, 10(a3)
   11bcc: 83 07 c7 00  	lb	a5, 12(a4)
   11bd0: 03 08 d7 00  	lb	a6, 13(a4)
   11bd4: a3 85 b6 00  	sb	a1, 11(a3)
   11bd8: 83 05 e7 00  	lb	a1, 14(a4)
   11bdc: 23 86 f6 00  	sb	a5, 12(a3)
   11be0: a3 86 06 01  	sb	a6, 13(a3)
   11be4: 83 07 f7 00  	lb	a5, 15(a4)
   11be8: 23 87 b6 00  	sb	a1, 14(a3)
   11bec: 13 07 07 01  	addi	a4, a4, 16
   11bf0: 93 85 06 01  	addi	a1, a3, 16
   11bf4: a3 87 f6 00  	sb	a5, 15(a3)
   11bf8: 93 86 05 00  	mv	a3, a1
   11bfc: 93 75 86 00  	andi	a1, a2, 8
   11c00: e3 86 05 e6  	beqz	a1, 0x11a6c <.LBB0_24>

0000000000011c04 <.LBB0_35>:
   11c04: 83 05 07 00  	lb	a1, 0(a4)
   11c08: 83 07 17 00  	lb	a5, 1(a4)
   11c0c: 03 08 27 00  	lb	a6, 2(a4)
   11c10: 23 80 b6 00  	sb	a1, 0(a3)
   11c14: a3 80 f6 00  	sb	a5, 1(a3)
   11c18: 83 05 37 00  	lb	a1, 3(a4)
   11c1c: 23 81 06 01  	sb	a6, 2(a3)
   11c20: 83 07 47 00  	lb	a5, 4(a4)
   11c24: 03 08 57 00  	lb	a6, 5(a4)
   11c28: a3 81 b6 00  	sb	a1, 3(a3)
   11c2c: 83 05 67 00  	lb	a1, 6(a4)
   11c30: 23 82 f6 00  	sb	a5, 4(a3)
   11c34: a3 82 06 01  	sb	a6, 5(a3)
   11c38: 83 07 77 00  	lb	a5, 7(a4)
   11c3c: 23 83 b6 00  	sb	a1, 6(a3)
   11c40: 13 07 87 00  	addi	a4, a4, 8
   11c44: 93 85 86 00  	addi	a1, a3, 8
   11c48: a3 83 f6 00  	sb	a5, 7(a3)
   11c4c: 93 86 05 00  	mv	a3, a1
   11c50: 93 75 46 00  	andi	a1, a2, 4
   11c54: e3 90 05 e2  	bnez	a1, 0x11a74 <.LBB0_25>
   11c58: 6f f0 9f e4  	j	0x11aa0 <.LBB0_26>

0000000000011c5c <memset>:
   11c5c: 13 01 01 fd  	addi	sp, sp, -48
   11c60: 23 34 11 02  	sd	ra, 40(sp)
   11c64: 23 30 81 02  	sd	s0, 32(sp)
   11c68: 23 3c 91 00  	sd	s1, 24(sp)
   11c6c: 23 38 21 01  	sd	s2, 16(sp)
   11c70: 23 34 31 01  	sd	s3, 8(sp)
   11c74: 13 04 05 00  	mv	s0, a0
   11c78: 63 08 06 0e  	beqz	a2, 0x11d68 <.LBB0_9>
   11c7c: 23 00 b4 00  	sb	a1, 0(s0)
   11c80: 33 05 86 00  	add	a0, a2, s0
   11c84: 93 06 30 00  	li	a3, 3
   11c88: a3 0f b5 fe  	sb	a1, -1(a0)
   11c8c: 63 6e d6 0c  	bltu	a2, a3, 0x11d68 <.LBB0_9>
   11c90: a3 00 b4 00  	sb	a1, 1(s0)
   11c94: 23 01 b4 00  	sb	a1, 2(s0)
   11c98: 23 0f b5 fe  	sb	a1, -2(a0)
   11c9c: 93 06 70 00  	li	a3, 7
   11ca0: a3 0e b5 fe  	sb	a1, -3(a0)
   11ca4: 63 62 d6 0c  	bltu	a2, a3, 0x11d68 <.LBB0_9>
   11ca8: a3 01 b4 00  	sb	a1, 3(s0)
   11cac: 93 09 90 00  	li	s3, 9
   11cb0: 23 0e b5 fe  	sb	a1, -4(a0)
   11cb4: 63 6a 36 0b  	bltu	a2, s3, 0x11d68 <.LBB0_9>
   11cb8: 3b 05 80 40  	negw	a0, s0
   11cbc: 13 75 35 00  	andi	a0, a0, 3
   11cc0: b3 04 a4 00  	add	s1, s0, a0
   11cc4: 33 05 a6 40  	sub	a0, a2, a0
   11cc8: 13 79 c5 ff  	andi	s2, a0, -4
   11ccc: 13 f5 f5 0f  	andi	a0, a1, 255
   11cd0: b7 05 01 01  	lui	a1, 4112
   11cd4: 9b 85 15 10  	addiw	a1, a1, 257
   11cd8: ef 00 c0 0b  	jal	0x11d94 <__muldi3>
   11cdc: 23 a0 a4 00  	sw	a0, 0(s1)
   11ce0: b3 85 24 01  	add	a1, s1, s2
   11ce4: 23 ae a5 fe  	sw	a0, -4(a1)
   11ce8: 63 60 39 09  	bltu	s2, s3, 0x11d68 <.LBB0_9>
   11cec: 23 a2 a4 00  	sw	a0, 4(s1)
   11cf0: 23 a4 a4 00  	sw	a0, 8(s1)
   11cf4: 23 aa a5 fe  	sw	a0, -12(a1)
   11cf8: 13 06 90 01  	li	a2, 25
   11cfc: 23 ac a5 fe  	sw	a0, -8(a1)
   11d00: 63 64 c9 06  	bltu	s2, a2, 0x11d68 <.LBB0_9>
   11d04: 23 a6 a4 00  	sw	a0, 12(s1)
   11d08: 23 a8 a4 00  	sw	a0, 16(s1)
   11d0c: 23 aa a4 00  	sw	a0, 20(s1)
   11d10: 23 ac a4 00  	sw	a0, 24(s1)
   11d14: 23 a2 a5 fe  	sw	a0, -28(a1)
   11d18: 23 a4 a5 fe  	sw	a0, -24(a1)
   11d1c: 23 a6 a5 fe  	sw	a0, -20(a1)
   11d20: 13 f6 44 00  	andi	a2, s1, 4
   11d24: 93 66 86 01  	ori	a3, a2, 24
   11d28: 33 06 d9 40  	sub	a2, s2, a3
   11d2c: 13 07 00 02  	li	a4, 32
   11d30: 23 a8 a5 fe  	sw	a0, -16(a1)
   11d34: 63 6a e6 02  	bltu	a2, a4, 0x11d68 <.LBB0_9>
   11d38: 13 15 05 02  	slli	a0, a0, 32
   11d3c: 93 55 05 02  	srli	a1, a0, 32
   11d40: 33 65 b5 00  	or	a0, a0, a1
   11d44: b3 85 d4 00  	add	a1, s1, a3
   11d48: 93 06 f0 01  	li	a3, 31

0000000000011d4c <.LBB0_8>:
   11d4c: 23 b0 a5 00  	sd	a0, 0(a1)
   11d50: 23 b4 a5 00  	sd	a0, 8(a1)
   11d54: 23 b8 a5 00  	sd	a0, 16(a1)
   11d58: 23 bc a5 00  	sd	a0, 24(a1)
   11d5c: 13 06 06 fe  	addi	a2, a2, -32
   11d60: 93 85 05 02  	addi	a1, a1, 32
   11d64: e3 e4 c6 fe  	bltu	a3, a2, 0x11d4c <.LBB0_8>

0000000000011d68 <.LBB0_9>:
   11d68: 13 05 04 00  	mv	a0, s0
   11d6c: 83 30 81 02  	ld	ra, 40(sp)
   11d70: 03 34 01 02  	ld	s0, 32(sp)
   11d74: 83 34 81 01  	ld	s1, 24(sp)
   11d78: 03 39 01 01  	ld	s2, 16(sp)
   11d7c: 83 39 81 00  	ld	s3, 8(sp)
   11d80: 13 01 01 03  	addi	sp, sp, 48
   11d84: 67 80 00 00  	ret

0000000000011d88 <__set_thread_area>:
   11d88: 13 02 05 00  	mv	tp, a0
   11d8c: 13 05 00 00  	li	a0, 0
   11d90: 67 80 00 00  	ret

0000000000011d94 <__muldi3>:
   11d94: 13 06 05 00  	mv	a2, a0
   11d98: 13 05 00 00  	li	a0, 0

0000000000011d9c <.L1>:
   11d9c: 93 f6 15 00  	andi	a3, a1, 1
   11da0: 63 84 06 00  	beqz	a3, 0x11da8 <.L2>
   11da4: 33 05 c5 00  	add	a0, a0, a2

0000000000011da8 <.L2>:
   11da8: 93 d5 15 00  	srli	a1, a1, 1
   11dac: 13 16 16 00  	slli	a2, a2, 1
   11db0: e3 96 05 fe  	bnez	a1, 0x11d9c <.L1>
   11db4: 67 80 00 00  	ret

0000000000011db8 <main>:
   11db8: 13 01 01 ff  	addi	sp, sp, -16
   11dbc: 23 34 11 00  	sd	ra, 8(sp)
   11dc0: 37 05 01 00  	lui	a0, 16
   11dc4: 13 05 95 15  	addi	a0, a0, 345
   11dc8: ef 00 40 01  	jal	0x11ddc <puts>
   11dcc: 13 05 50 00  	li	a0, 5
   11dd0: 83 30 81 00  	ld	ra, 8(sp)
   11dd4: 13 01 01 01  	addi	sp, sp, 16
   11dd8: 67 80 00 00  	ret

0000000000011ddc <puts>:
   11ddc: 13 01 01 fe  	addi	sp, sp, -32
   11de0: 23 3c 11 00  	sd	ra, 24(sp)
   11de4: 23 38 81 00  	sd	s0, 16(sp)
   11de8: 23 34 91 00  	sd	s1, 8(sp)
   11dec: 23 30 21 01  	sd	s2, 0(sp)
   11df0: b7 45 01 00  	lui	a1, 20
   11df4: 93 84 05 2b  	addi	s1, a1, 688
   11df8: 83 a5 c4 08  	lw	a1, 140(s1)
   11dfc: 13 09 05 00  	mv	s2, a0
   11e00: 63 ca 05 00  	bltz	a1, 0x11e14 <.LBB0_2>
   11e04: 13 85 04 00  	mv	a0, s1
   11e08: ef 00 c0 2e  	jal	0x120f4 <__lockfile>
   11e0c: 13 04 05 00  	mv	s0, a0
   11e10: 6f 00 80 00  	j	0x11e18 <.LBB0_3>

0000000000011e14 <.LBB0_2>:
   11e14: 13 04 00 00  	li	s0, 0

0000000000011e18 <.LBB0_3>:
   11e18: 13 05 09 00  	mv	a0, s2
   11e1c: 93 85 04 00  	mv	a1, s1
   11e20: ef 00 c0 3c  	jal	0x121ec <fputs_unlocked>
   11e24: 63 4e 05 06  	bltz	a0, 0x11ea0 <.LBB0_10>
   11e28: 37 45 01 00  	lui	a0, 20
   11e2c: 13 05 05 2b  	addi	a0, a0, 688
   11e30: 83 25 05 09  	lw	a1, 144(a0)
   11e34: 13 06 a0 00  	li	a2, 10
   11e38: 63 88 c5 02  	beq	a1, a2, 0x11e68 <.LBB0_7>
   11e3c: 83 35 85 02  	ld	a1, 40(a0)
   11e40: 03 36 05 02  	ld	a2, 32(a0)
   11e44: 63 82 c5 02  	beq	a1, a2, 0x11e68 <.LBB0_7>
   11e48: 93 04 00 00  	li	s1, 0
   11e4c: 13 85 15 00  	addi	a0, a1, 1
   11e50: 37 46 01 00  	lui	a2, 20
   11e54: 23 3c a6 2c  	sd	a0, 728(a2)
   11e58: 13 05 a0 00  	li	a0, 10
   11e5c: 23 80 a5 00  	sb	a0, 0(a1)
   11e60: 63 1c 04 00  	bnez	s0, 0x11e78 <.LBB0_8>
   11e64: 6f 00 00 02  	j	0x11e84 <.LBB0_9>

0000000000011e68 <.LBB0_7>:
   11e68: 93 05 a0 00  	li	a1, 10
   11e6c: ef 10 00 38  	jal	0x131ec <__overflow>
   11e70: 93 24 05 00  	slti	s1, a0, 0
   11e74: 63 08 04 00  	beqz	s0, 0x11e84 <.LBB0_9>

0000000000011e78 <.LBB0_8>:
   11e78: 37 45 01 00  	lui	a0, 20
   11e7c: 13 05 05 2b  	addi	a0, a0, 688
   11e80: ef 00 c0 31  	jal	0x1219c <__unlockfile>

0000000000011e84 <.LBB0_9>:
   11e84: 33 05 90 40  	neg	a0, s1
   11e88: 83 30 81 01  	ld	ra, 24(sp)
   11e8c: 03 34 01 01  	ld	s0, 16(sp)
   11e90: 83 34 81 00  	ld	s1, 8(sp)
   11e94: 03 39 01 00  	ld	s2, 0(sp)
   11e98: 13 01 01 02  	addi	sp, sp, 32
   11e9c: 67 80 00 00  	ret

0000000000011ea0 <.LBB0_10>:
   11ea0: 93 04 10 00  	li	s1, 1
   11ea4: e3 1a 04 fc  	bnez	s0, 0x11e78 <.LBB0_8>
   11ea8: 6f f0 df fd  	j	0x11e84 <.LBB0_9>

0000000000011eac <dummy>:
   11eac: 67 80 00 00  	ret

0000000000011eb0 <__stdio_close>:
   11eb0: 13 01 01 ff  	addi	sp, sp, -16
   11eb4: 23 34 11 00  	sd	ra, 8(sp)
   11eb8: 03 25 85 07  	lw	a0, 120(a0)
   11ebc: ef f0 1f ff  	jal	0x11eac <dummy>
   11ec0: 93 08 90 03  	li	a7, 57
   11ec4: 73 00 00 00  	ecall	
   11ec8: ef 00 40 01  	jal	0x11edc <__syscall_ret>
   11ecc: 1b 05 05 00  	sext.w	a0, a0
   11ed0: 83 30 81 00  	ld	ra, 8(sp)
   11ed4: 13 01 01 01  	addi	sp, sp, 16
   11ed8: 67 80 00 00  	ret

0000000000011edc <__syscall_ret>:
   11edc: b7 f5 ff ff  	lui	a1, 1048575
   11ee0: 9b 85 15 00  	addiw	a1, a1, 1
   11ee4: 63 66 b5 02  	bltu	a0, a1, 0x11f10 <.LBB0_2>
   11ee8: 13 01 01 ff  	addi	sp, sp, -16
   11eec: 23 34 11 00  	sd	ra, 8(sp)
   11ef0: 23 30 81 00  	sd	s0, 0(sp)
   11ef4: 3b 04 a0 40  	negw	s0, a0
   11ef8: ef 00 c0 01  	jal	0x11f14 <__errno_location>
   11efc: 23 20 85 00  	sw	s0, 0(a0)
   11f00: 13 05 f0 ff  	li	a0, -1
   11f04: 83 30 81 00  	ld	ra, 8(sp)
   11f08: 03 34 01 00  	ld	s0, 0(sp)
   11f0c: 13 01 01 01  	addi	sp, sp, 16

0000000000011f10 <.LBB0_2>:
   11f10: 67 80 00 00  	ret

0000000000011f14 <__errno_location>:
   11f14: 13 05 02 00  	mv	a0, tp
   11f18: 13 05 c5 f5  	addi	a0, a0, -164
   11f1c: 67 80 00 00  	ret

0000000000011f20 <__stdout_write>:
   11f20: 13 01 01 ff  	addi	sp, sp, -16
   11f24: 23 34 11 00  	sd	ra, 8(sp)
   11f28: 93 06 05 00  	mv	a3, a0
   11f2c: 03 45 05 00  	lbu	a0, 0(a0)
   11f30: 13 07 06 00  	mv	a4, a2
   11f34: 93 87 05 00  	mv	a5, a1
   11f38: b7 25 01 00  	lui	a1, 18
   11f3c: 93 85 c5 f8  	addi	a1, a1, -116
   11f40: 13 75 05 04  	andi	a0, a0, 64
   11f44: 23 b4 b6 04  	sd	a1, 72(a3)
   11f48: 63 14 05 02  	bnez	a0, 0x11f70 <.LBB0_3>
   11f4c: 03 a5 86 07  	lw	a0, 120(a3)
   11f50: b7 55 00 00  	lui	a1, 5
   11f54: 9b 85 35 41  	addiw	a1, a1, 1043
   11f58: 93 08 d0 01  	li	a7, 29
   11f5c: 13 06 01 00  	mv	a2, sp
   11f60: 73 00 00 00  	ecall	
   11f64: 63 06 05 00  	beqz	a0, 0x11f70 <.LBB0_3>
   11f68: 13 05 f0 ff  	li	a0, -1
   11f6c: 23 a8 a6 08  	sw	a0, 144(a3)

0000000000011f70 <.LBB0_3>:
   11f70: 13 85 06 00  	mv	a0, a3
   11f74: 93 85 07 00  	mv	a1, a5
   11f78: 13 06 07 00  	mv	a2, a4
   11f7c: ef 00 00 01  	jal	0x11f8c <__stdio_write>
   11f80: 83 30 81 00  	ld	ra, 8(sp)
   11f84: 13 01 01 01  	addi	sp, sp, 16
   11f88: 67 80 00 00  	ret

0000000000011f8c <__stdio_write>:
   11f8c: 13 01 01 fa  	addi	sp, sp, -96
   11f90: 23 3c 11 04  	sd	ra, 88(sp)
   11f94: 23 38 81 04  	sd	s0, 80(sp)
   11f98: 23 34 91 04  	sd	s1, 72(sp)
   11f9c: 23 30 21 05  	sd	s2, 64(sp)
   11fa0: 23 3c 31 03  	sd	s3, 56(sp)
   11fa4: 23 38 41 03  	sd	s4, 48(sp)
   11fa8: 23 34 51 03  	sd	s5, 40(sp)
   11fac: 93 04 05 00  	mv	s1, a0
   11fb0: 03 35 85 03  	ld	a0, 56(a0)
   11fb4: 23 34 a1 00  	sd	a0, 8(sp)
   11fb8: 83 b6 84 02  	ld	a3, 40(s1)
   11fbc: 13 04 06 00  	mv	s0, a2
   11fc0: 33 85 a6 40  	sub	a0, a3, a0
   11fc4: 23 38 a1 00  	sd	a0, 16(sp)
   11fc8: 23 3c b1 00  	sd	a1, 24(sp)
   11fcc: 23 30 c1 02  	sd	a2, 32(sp)
   11fd0: 33 0a c5 00  	add	s4, a0, a2
   11fd4: 03 a5 84 07  	lw	a0, 120(s1)
   11fd8: 93 0a 81 00  	addi	s5, sp, 8
   11fdc: 13 09 20 00  	li	s2, 2
   11fe0: 93 08 20 04  	li	a7, 66
   11fe4: 93 05 81 00  	addi	a1, sp, 8
   11fe8: 13 06 20 00  	li	a2, 2
   11fec: 73 00 00 00  	ecall	
   11ff0: ef f0 df ee  	jal	0x11edc <__syscall_ret>
   11ff4: 63 0e aa 06  	beq	s4, a0, 0x12070 <.LBB0_8>

0000000000011ff8 <.LBB0_1>:
   11ff8: 63 4c 05 0a  	bltz	a0, 0x120b0 <.LBB0_10>
   11ffc: 83 b6 8a 00  	ld	a3, 8(s5)
   12000: 63 e6 a6 00  	bltu	a3, a0, 0x1200c <.LBB0_4>
   12004: 93 05 05 00  	mv	a1, a0
   12008: 6f 00 80 00  	j	0x12010 <.LBB0_5>

000000000001200c <.LBB0_4>:
   1200c: b3 05 d5 40  	sub	a1, a0, a3

0000000000012010 <.LBB0_5>:
   12010: 33 b6 a6 00  	sltu	a2, a3, a0
   12014: 13 17 46 00  	slli	a4, a2, 4
   12018: b3 89 ea 00  	add	s3, s5, a4
   1201c: 03 b7 09 00  	ld	a4, 0(s3)
   12020: 33 07 b7 00  	add	a4, a4, a1
   12024: 23 b0 e9 00  	sd	a4, 0(s3)
   12028: 13 07 80 01  	li	a4, 24
   1202c: 63 e4 a6 00  	bltu	a3, a0, 0x12034 <.LBB0_7>
   12030: 13 07 80 00  	li	a4, 8

0000000000012034 <.LBB0_7>:
   12034: b3 86 ea 00  	add	a3, s5, a4
   12038: 03 b7 06 00  	ld	a4, 0(a3)
   1203c: b3 05 b7 40  	sub	a1, a4, a1
   12040: 23 b0 b6 00  	sd	a1, 0(a3)
   12044: 83 a5 84 07  	lw	a1, 120(s1)
   12048: 33 0a aa 40  	sub	s4, s4, a0
   1204c: 3b 09 c9 40  	subw	s2, s2, a2
   12050: 93 08 20 04  	li	a7, 66
   12054: 13 85 05 00  	mv	a0, a1
   12058: 93 85 09 00  	mv	a1, s3
   1205c: 13 06 09 00  	mv	a2, s2
   12060: 73 00 00 00  	ecall	
   12064: ef f0 9f e7  	jal	0x11edc <__syscall_ret>
   12068: 93 8a 09 00  	mv	s5, s3
   1206c: e3 16 aa f8  	bne	s4, a0, 0x11ff8 <.LBB0_1>

0000000000012070 <.LBB0_8>:
   12070: 03 b5 84 05  	ld	a0, 88(s1)
   12074: 83 b5 04 06  	ld	a1, 96(s1)
   12078: b3 05 b5 00  	add	a1, a0, a1
   1207c: 23 b0 b4 02  	sd	a1, 32(s1)
   12080: 23 bc a4 02  	sd	a0, 56(s1)
   12084: 23 b4 a4 02  	sd	a0, 40(s1)
   12088: 13 05 04 00  	mv	a0, s0

000000000001208c <.LBB0_9>:
   1208c: 83 30 81 05  	ld	ra, 88(sp)
   12090: 03 34 01 05  	ld	s0, 80(sp)
   12094: 83 34 81 04  	ld	s1, 72(sp)
   12098: 03 39 01 04  	ld	s2, 64(sp)
   1209c: 83 39 81 03  	ld	s3, 56(sp)
   120a0: 03 3a 01 03  	ld	s4, 48(sp)
   120a4: 83 3a 81 02  	ld	s5, 40(sp)
   120a8: 13 01 01 06  	addi	sp, sp, 96
   120ac: 67 80 00 00  	ret

00000000000120b0 <.LBB0_10>:
   120b0: 83 a5 04 00  	lw	a1, 0(s1)
   120b4: 13 05 00 00  	li	a0, 0
   120b8: 23 b0 04 02  	sd	zero, 32(s1)
   120bc: 23 bc 04 02  	sd	zero, 56(s1)
   120c0: 93 e5 05 02  	ori	a1, a1, 32
   120c4: 23 a0 b4 00  	sw	a1, 0(s1)
   120c8: 93 05 20 00  	li	a1, 2
   120cc: 23 b4 04 02  	sd	zero, 40(s1)
   120d0: e3 0e b9 fa  	beq	s2, a1, 0x1208c <.LBB0_9>
   120d4: 03 b5 8a 00  	ld	a0, 8(s5)
   120d8: 33 05 a4 40  	sub	a0, s0, a0
   120dc: 6f f0 1f fb  	j	0x1208c <.LBB0_9>

00000000000120e0 <__stdio_seek>:
   120e0: 03 25 85 07  	lw	a0, 120(a0)
   120e4: 6f 00 40 00  	j	0x120e8 <lseek64>

00000000000120e8 <lseek64>:
   120e8: 93 08 e0 03  	li	a7, 62
   120ec: 73 00 00 00  	ecall	
   120f0: 6f f0 df de  	j	0x11edc <__syscall_ret>

00000000000120f4 <__lockfile>:
   120f4: 03 26 c5 08  	lw	a2, 140(a0)
   120f8: 93 05 02 00  	mv	a1, tp
   120fc: 83 a5 85 f5  	lw	a1, -168(a1)
   12100: b7 06 00 c0  	lui	a3, 786432
   12104: 9b 86 f6 ff  	addiw	a3, a3, -1
   12108: 33 76 d6 00  	and	a2, a2, a3
   1210c: 63 16 b6 00  	bne	a2, a1, 0x12118 <.LBB0_2>
   12110: 13 07 00 00  	li	a4, 0
   12114: 6f 00 00 08  	j	0x12194 <.LBB0_10>

0000000000012118 <.LBB0_2>:
   12118: 93 07 c5 08  	addi	a5, a0, 140
   1211c: 03 a5 07 00  	lw	a0, 0(a5)
   12120: 23 a0 b7 00  	sw	a1, 0(a5)
   12124: 13 07 10 00  	li	a4, 1
   12128: 63 06 05 06  	beqz	a0, 0x12194 <.LBB0_10>
   1212c: 03 a5 07 00  	lw	a0, 0(a5)
   12130: 37 08 00 40  	lui	a6, 262144
   12134: b3 e2 05 01  	or	t0, a1, a6
   12138: 23 a0 57 00  	sw	t0, 0(a5)
   1213c: 63 0c 05 04  	beqz	a0, 0x12194 <.LBB0_10>
   12140: 13 03 a0 fd  	li	t1, -38

0000000000012144 <.LBB0_5>:
   12144: 93 15 15 02  	slli	a1, a0, 33
   12148: 33 66 05 01  	or	a2, a0, a6
   1214c: 63 c8 05 00  	bltz	a1, 0x1215c <.LBB0_7>
   12150: 83 a5 07 00  	lw	a1, 0(a5)
   12154: 23 a0 c7 00  	sw	a2, 0(a5)
   12158: 63 98 a5 02  	bne	a1, a0, 0x12188 <.LBB0_9>

000000000001215c <.LBB0_7>:
   1215c: 93 08 20 06  	li	a7, 98
   12160: 93 05 00 08  	li	a1, 128
   12164: 13 85 07 00  	mv	a0, a5
   12168: 93 06 00 00  	li	a3, 0
   1216c: 73 00 00 00  	ecall	
   12170: 63 1c 65 00  	bne	a0, t1, 0x12188 <.LBB0_9>
   12174: 93 08 20 06  	li	a7, 98
   12178: 13 85 07 00  	mv	a0, a5
   1217c: 93 05 00 00  	li	a1, 0
   12180: 93 06 00 00  	li	a3, 0
   12184: 73 00 00 00  	ecall	

0000000000012188 <.LBB0_9>:
   12188: 03 a5 07 00  	lw	a0, 0(a5)
   1218c: 23 a0 57 00  	sw	t0, 0(a5)
   12190: e3 1a 05 fa  	bnez	a0, 0x12144 <.LBB0_5>

0000000000012194 <.LBB0_10>:
   12194: 13 05 07 00  	mv	a0, a4
   12198: 67 80 00 00  	ret

000000000001219c <__unlockfile>:
   1219c: 93 06 c5 08  	addi	a3, a0, 140

00000000000121a0 <.LBB1_1>:
   121a0: 03 a5 06 00  	lw	a0, 0(a3)
   121a4: 83 a5 06 00  	lw	a1, 0(a3)
   121a8: 23 a0 06 00  	sw	zero, 0(a3)
   121ac: e3 9a a5 fe  	bne	a1, a0, 0x121a0 <.LBB1_1>
   121b0: 13 15 15 02  	slli	a0, a0, 33
   121b4: 63 5a 05 02  	bgez	a0, 0x121e8 <.LBB1_5>
   121b8: 93 08 20 06  	li	a7, 98
   121bc: 93 05 10 08  	li	a1, 129
   121c0: 13 06 10 00  	li	a2, 1
   121c4: 13 07 a0 fd  	li	a4, -38
   121c8: 13 85 06 00  	mv	a0, a3
   121cc: 73 00 00 00  	ecall	
   121d0: 63 1c e5 00  	bne	a0, a4, 0x121e8 <.LBB1_5>
   121d4: 93 08 20 06  	li	a7, 98
   121d8: 93 05 10 00  	li	a1, 1
   121dc: 13 06 10 00  	li	a2, 1
   121e0: 13 85 06 00  	mv	a0, a3
   121e4: 73 00 00 00  	ecall	

00000000000121e8 <.LBB1_5>:
   121e8: 67 80 00 00  	ret

00000000000121ec <fputs_unlocked>:
   121ec: 13 01 01 fe  	addi	sp, sp, -32
   121f0: 23 3c 11 00  	sd	ra, 24(sp)
   121f4: 23 38 81 00  	sd	s0, 16(sp)
   121f8: 23 34 91 00  	sd	s1, 8(sp)
   121fc: 23 30 21 01  	sd	s2, 0(sp)
   12200: 13 84 05 00  	mv	s0, a1
   12204: 93 04 05 00  	mv	s1, a0
   12208: ef 00 00 04  	jal	0x12248 <strlen>
   1220c: 13 09 05 00  	mv	s2, a0
   12210: 93 05 10 00  	li	a1, 1
   12214: 13 85 04 00  	mv	a0, s1
   12218: 13 06 09 00  	mv	a2, s2
   1221c: 93 06 04 00  	mv	a3, s0
   12220: ef 00 00 1d  	jal	0x123f0 <fwrite_unlocked>
   12224: 33 45 25 01  	xor	a0, a0, s2
   12228: 33 35 a0 00  	snez	a0, a0
   1222c: 33 05 a0 40  	neg	a0, a0
   12230: 83 30 81 01  	ld	ra, 24(sp)
   12234: 03 34 01 01  	ld	s0, 16(sp)
   12238: 83 34 81 00  	ld	s1, 8(sp)
   1223c: 03 39 01 00  	ld	s2, 0(sp)
   12240: 13 01 01 02  	addi	sp, sp, 32
   12244: 67 80 00 00  	ret

0000000000012248 <strlen>:
   12248: 13 76 75 00  	andi	a2, a0, 7
   1224c: 93 05 05 00  	mv	a1, a0
   12250: 63 02 06 02  	beqz	a2, 0x12274 <.LBB0_4>
   12254: 13 06 15 00  	addi	a2, a0, 1
   12258: 93 05 05 00  	mv	a1, a0

000000000001225c <.LBB0_2>:
   1225c: 83 c6 05 00  	lbu	a3, 0(a1)
   12260: 63 8a 06 04  	beqz	a3, 0x122b4 <.LBB0_7>
   12264: 93 85 15 00  	addi	a1, a1, 1
   12268: 93 76 76 00  	andi	a3, a2, 7
   1226c: 13 06 16 00  	addi	a2, a2, 1
   12270: e3 96 06 fe  	bnez	a3, 0x1225c <.LBB0_2>

0000000000012274 <.LBB0_4>:
   12274: 37 46 01 00  	lui	a2, 20
   12278: 83 36 06 2a  	ld	a3, 672(a2)
   1227c: 37 46 01 00  	lui	a2, 20
   12280: 03 37 86 2a  	ld	a4, 680(a2)
   12284: 13 86 75 ff  	addi	a2, a1, -9

0000000000012288 <.LBB0_5>:
   12288: 83 35 96 00  	ld	a1, 9(a2)
   1228c: 93 c7 f5 ff  	not	a5, a1
   12290: b3 85 e5 00  	add	a1, a1, a4
   12294: b3 f7 d7 00  	and	a5, a5, a3
   12298: b3 f5 b7 00  	and	a1, a5, a1
   1229c: 13 06 86 00  	addi	a2, a2, 8
   122a0: e3 84 05 fe  	beqz	a1, 0x12288 <.LBB0_5>

00000000000122a4 <.LBB0_6>:
   122a4: 83 46 16 00  	lbu	a3, 1(a2)
   122a8: 93 05 16 00  	addi	a1, a2, 1
   122ac: 13 86 05 00  	mv	a2, a1
   122b0: e3 9a 06 fe  	bnez	a3, 0x122a4 <.LBB0_6>

00000000000122b4 <.LBB0_7>:
   122b4: 33 85 a5 40  	sub	a0, a1, a0
   122b8: 67 80 00 00  	ret

00000000000122bc <__fwritex>:
   122bc: 13 01 01 fc  	addi	sp, sp, -64
   122c0: 23 3c 11 02  	sd	ra, 56(sp)
   122c4: 23 38 81 02  	sd	s0, 48(sp)
   122c8: 23 34 91 02  	sd	s1, 40(sp)
   122cc: 23 30 21 03  	sd	s2, 32(sp)
   122d0: 23 3c 31 01  	sd	s3, 24(sp)
   122d4: 23 38 41 01  	sd	s4, 16(sp)
   122d8: 23 34 51 01  	sd	s5, 8(sp)
   122dc: 13 04 06 00  	mv	s0, a2
   122e0: 03 36 06 02  	ld	a2, 32(a2)
   122e4: 93 84 05 00  	mv	s1, a1
   122e8: 13 09 05 00  	mv	s2, a0
   122ec: 63 02 06 0a  	beqz	a2, 0x12390 <.LBB0_9>

00000000000122f0 <.LBB0_1>:
   122f0: 03 35 84 02  	ld	a0, 40(s0)
   122f4: b3 05 a6 40  	sub	a1, a2, a0
   122f8: 63 fc 95 02  	bgeu	a1, s1, 0x12330 <.LBB0_3>
   122fc: 03 33 84 04  	ld	t1, 72(s0)
   12300: 13 05 04 00  	mv	a0, s0
   12304: 93 05 09 00  	mv	a1, s2
   12308: 13 86 04 00  	mv	a2, s1
   1230c: 83 30 81 03  	ld	ra, 56(sp)
   12310: 03 34 01 03  	ld	s0, 48(sp)
   12314: 83 34 81 02  	ld	s1, 40(sp)
   12318: 03 39 01 02  	ld	s2, 32(sp)
   1231c: 83 39 81 01  	ld	s3, 24(sp)
   12320: 03 3a 01 01  	ld	s4, 16(sp)
   12324: 83 3a 81 00  	ld	s5, 8(sp)
   12328: 13 01 01 04  	addi	sp, sp, 64
   1232c: 67 00 03 00  	jr	t1

0000000000012330 <.LBB0_3>:
   12330: 83 25 04 09  	lw	a1, 144(s0)
   12334: 63 cc 05 06  	bltz	a1, 0x123ac <.LBB0_11>
   12338: 13 0a 00 00  	li	s4, 0
   1233c: 93 05 a0 00  	li	a1, 10
   12340: 93 0a 09 00  	mv	s5, s2

0000000000012344 <.LBB0_5>:
   12344: 63 84 44 07  	beq	s1, s4, 0x123ac <.LBB0_11>
   12348: 33 86 9a 00  	add	a2, s5, s1
   1234c: 03 46 f6 ff  	lbu	a2, -1(a2)
   12350: 13 0a 1a 00  	addi	s4, s4, 1
   12354: 93 8a fa ff  	addi	s5, s5, -1
   12358: e3 16 b6 fe  	bne	a2, a1, 0x12344 <.LBB0_5>
   1235c: 83 36 84 04  	ld	a3, 72(s0)
   12360: 33 85 44 41  	sub	a0, s1, s4
   12364: 93 09 15 00  	addi	s3, a0, 1
   12368: 13 05 04 00  	mv	a0, s0
   1236c: 93 05 09 00  	mv	a1, s2
   12370: 13 86 09 00  	mv	a2, s3
   12374: e7 80 06 00  	jalr	a3
   12378: 63 6a 35 05  	bltu	a0, s3, 0x123cc <.LBB0_13>
   1237c: 03 35 84 02  	ld	a0, 40(s0)
   12380: b3 85 9a 00  	add	a1, s5, s1
   12384: 93 04 fa ff  	addi	s1, s4, -1
   12388: 13 89 15 00  	addi	s2, a1, 1
   1238c: 6f 00 40 02  	j	0x123b0 <.LBB0_12>

0000000000012390 <.LBB0_9>:
   12390: 13 05 04 00  	mv	a0, s0
   12394: ef 00 00 13  	jal	0x124c4 <__towrite>
   12398: 93 05 05 00  	mv	a1, a0
   1239c: 13 05 00 00  	li	a0, 0
   123a0: 63 96 05 02  	bnez	a1, 0x123cc <.LBB0_13>
   123a4: 03 36 04 02  	ld	a2, 32(s0)
   123a8: 6f f0 9f f4  	j	0x122f0 <.LBB0_1>

00000000000123ac <.LBB0_11>:
   123ac: 93 09 00 00  	li	s3, 0

00000000000123b0 <.LBB0_12>:
   123b0: 93 05 09 00  	mv	a1, s2
   123b4: 13 86 04 00  	mv	a2, s1
   123b8: ef f0 0f c9  	jal	0x11848 <memcpy>
   123bc: 03 35 84 02  	ld	a0, 40(s0)
   123c0: 33 05 95 00  	add	a0, a0, s1
   123c4: 23 34 a4 02  	sd	a0, 40(s0)
   123c8: 33 85 99 00  	add	a0, s3, s1

00000000000123cc <.LBB0_13>:
   123cc: 83 30 81 03  	ld	ra, 56(sp)
   123d0: 03 34 01 03  	ld	s0, 48(sp)
   123d4: 83 34 81 02  	ld	s1, 40(sp)
   123d8: 03 39 01 02  	ld	s2, 32(sp)
   123dc: 83 39 81 01  	ld	s3, 24(sp)
   123e0: 03 3a 01 01  	ld	s4, 16(sp)
   123e4: 83 3a 81 00  	ld	s5, 8(sp)
   123e8: 13 01 01 04  	addi	sp, sp, 64
   123ec: 67 80 00 00  	ret

00000000000123f0 <fwrite_unlocked>:
   123f0: 13 01 01 fc  	addi	sp, sp, -64
   123f4: 23 3c 11 02  	sd	ra, 56(sp)
   123f8: 23 38 81 02  	sd	s0, 48(sp)
   123fc: 23 34 91 02  	sd	s1, 40(sp)
   12400: 23 30 21 03  	sd	s2, 32(sp)
   12404: 23 3c 31 01  	sd	s3, 24(sp)
   12408: 23 38 41 01  	sd	s4, 16(sp)
   1240c: 23 34 51 01  	sd	s5, 8(sp)
   12410: 93 89 06 00  	mv	s3, a3
   12414: 93 0a 06 00  	mv	s5, a2
   12418: 13 84 05 00  	mv	s0, a1
   1241c: 13 0a 05 00  	mv	s4, a0
   12420: 13 05 06 00  	mv	a0, a2
   12424: ef f0 1f 97  	jal	0x11d94 <__muldi3>
   12428: 13 09 05 00  	mv	s2, a0
   1242c: 93 04 00 00  	li	s1, 0
   12430: 63 04 04 00  	beqz	s0, 0x12438 <.LBB1_2>
   12434: 93 84 0a 00  	mv	s1, s5

0000000000012438 <.LBB1_2>:
   12438: 03 a5 c9 08  	lw	a0, 140(s3)
   1243c: 63 46 05 06  	bltz	a0, 0x124a8 <.LBB1_8>
   12440: 13 85 09 00  	mv	a0, s3
   12444: ef f0 1f cb  	jal	0x120f4 <__lockfile>
   12448: 93 0a 05 00  	mv	s5, a0
   1244c: 13 05 0a 00  	mv	a0, s4
   12450: 93 05 09 00  	mv	a1, s2
   12454: 13 86 09 00  	mv	a2, s3
   12458: ef f0 5f e6  	jal	0x122bc <__fwritex>
   1245c: 13 0a 05 00  	mv	s4, a0
   12460: 63 86 0a 00  	beqz	s5, 0x1246c <.LBB1_5>
   12464: 13 85 09 00  	mv	a0, s3
   12468: ef f0 5f d3  	jal	0x1219c <__unlockfile>

000000000001246c <.LBB1_5>:
   1246c: 63 0a 2a 01  	beq	s4, s2, 0x12480 <.LBB1_7>

0000000000012470 <.LBB1_6>:
   12470: 13 05 0a 00  	mv	a0, s4
   12474: 93 05 04 00  	mv	a1, s0
   12478: ef 00 40 2e  	jal	0x1275c <__udivdi3>
   1247c: 93 04 05 00  	mv	s1, a0

0000000000012480 <.LBB1_7>:
   12480: 13 85 04 00  	mv	a0, s1
   12484: 83 30 81 03  	ld	ra, 56(sp)
   12488: 03 34 01 03  	ld	s0, 48(sp)
   1248c: 83 34 81 02  	ld	s1, 40(sp)
   12490: 03 39 01 02  	ld	s2, 32(sp)
   12494: 83 39 81 01  	ld	s3, 24(sp)
   12498: 03 3a 01 01  	ld	s4, 16(sp)
   1249c: 83 3a 81 00  	ld	s5, 8(sp)
   124a0: 13 01 01 04  	addi	sp, sp, 64
   124a4: 67 80 00 00  	ret

00000000000124a8 <.LBB1_8>:
   124a8: 13 05 0a 00  	mv	a0, s4
   124ac: 93 05 09 00  	mv	a1, s2
   124b0: 13 86 09 00  	mv	a2, s3
   124b4: ef f0 9f e0  	jal	0x122bc <__fwritex>
   124b8: 13 0a 05 00  	mv	s4, a0
   124bc: e3 1a 2a fb  	bne	s4, s2, 0x12470 <.LBB1_6>
   124c0: 6f f0 1f fc  	j	0x12480 <.LBB1_7>

00000000000124c4 <__towrite>:
   124c4: 03 26 85 08  	lw	a2, 136(a0)
   124c8: 83 65 05 00  	lwu	a1, 0(a0)
   124cc: 93 06 f6 ff  	addi	a3, a2, -1
   124d0: 33 e6 c6 00  	or	a2, a3, a2
   124d4: 93 f6 85 00  	andi	a3, a1, 8
   124d8: 23 24 c5 08  	sw	a2, 136(a0)
   124dc: 63 96 06 02  	bnez	a3, 0x12508 <.LBB0_2>
   124e0: 03 36 85 05  	ld	a2, 88(a0)
   124e4: 83 36 05 06  	ld	a3, 96(a0)
   124e8: 93 05 00 00  	li	a1, 0
   124ec: 23 3c c5 02  	sd	a2, 56(a0)
   124f0: 23 34 c5 02  	sd	a2, 40(a0)
   124f4: 33 06 d6 00  	add	a2, a2, a3
   124f8: 23 38 05 00  	sd	zero, 16(a0)
   124fc: 23 34 05 00  	sd	zero, 8(a0)
   12500: 23 30 c5 02  	sd	a2, 32(a0)
   12504: 6f 00 00 01  	j	0x12514 <.LBB0_3>

0000000000012508 <.LBB0_2>:
   12508: 93 e5 05 02  	ori	a1, a1, 32
   1250c: 23 20 b5 00  	sw	a1, 0(a0)
   12510: 93 05 f0 ff  	li	a1, -1

0000000000012514 <.LBB0_3>:
   12514: 13 85 05 00  	mv	a0, a1
   12518: 67 80 00 00  	ret

000000000001251c <__towrite_needs_stdio_exit>:
   1251c: 6f 00 40 00  	j	0x12520 <__stdio_exit_needed>

0000000000012520 <__stdio_exit_needed>:
   12520: 13 01 01 ff  	addi	sp, sp, -16
   12524: 23 34 11 00  	sd	ra, 8(sp)
   12528: 23 30 81 00  	sd	s0, 0(sp)
   1252c: ef 00 c0 0c  	jal	0x125f8 <__ofl_lock>
   12530: 03 34 05 00  	ld	s0, 0(a0)
   12534: 63 0a 04 00  	beqz	s0, 0x12548 <.LBB0_2>

0000000000012538 <.LBB0_1>:
   12538: 13 05 04 00  	mv	a0, s0
   1253c: ef 00 c0 03  	jal	0x12578 <close_file>
   12540: 03 34 04 07  	ld	s0, 112(s0)
   12544: e3 1a 04 fe  	bnez	s0, 0x12538 <.LBB0_1>

0000000000012548 <.LBB0_2>:
   12548: 37 45 01 00  	lui	a0, 20
   1254c: 03 35 85 3c  	ld	a0, 968(a0)
   12550: ef 00 80 02  	jal	0x12578 <close_file>
   12554: 37 45 01 00  	lui	a0, 20
   12558: 03 35 85 29  	ld	a0, 664(a0)
   1255c: ef 00 c0 01  	jal	0x12578 <close_file>
   12560: 37 45 01 00  	lui	a0, 20
   12564: 03 35 85 3c  	ld	a0, 968(a0)
   12568: 83 30 81 00  	ld	ra, 8(sp)
   1256c: 03 34 01 00  	ld	s0, 0(sp)
   12570: 13 01 01 01  	addi	sp, sp, 16
   12574: 6f 00 40 00  	j	0x12578 <close_file>

0000000000012578 <close_file>:
   12578: 13 01 01 ff  	addi	sp, sp, -16
   1257c: 23 34 11 00  	sd	ra, 8(sp)
   12580: 23 30 81 00  	sd	s0, 0(sp)
   12584: 63 02 05 06  	beqz	a0, 0x125e8 <.LBB1_7>
   12588: 13 04 05 00  	mv	s0, a0
   1258c: 03 25 c5 08  	lw	a0, 140(a0)
   12590: 63 46 05 00  	bltz	a0, 0x1259c <.LBB1_3>
   12594: 13 05 04 00  	mv	a0, s0
   12598: ef f0 df b5  	jal	0x120f4 <__lockfile>

000000000001259c <.LBB1_3>:
   1259c: 03 35 84 02  	ld	a0, 40(s0)
   125a0: 83 35 84 03  	ld	a1, 56(s0)
   125a4: 63 0c b5 00  	beq	a0, a1, 0x125bc <.LBB1_5>
   125a8: 83 36 84 04  	ld	a3, 72(s0)
   125ac: 13 05 04 00  	mv	a0, s0
   125b0: 93 05 00 00  	li	a1, 0
   125b4: 13 06 00 00  	li	a2, 0
   125b8: e7 80 06 00  	jalr	a3

00000000000125bc <.LBB1_5>:
   125bc: 03 35 84 00  	ld	a0, 8(s0)
   125c0: 83 35 04 01  	ld	a1, 16(s0)
   125c4: 63 02 b5 02  	beq	a0, a1, 0x125e8 <.LBB1_7>
   125c8: 03 33 04 05  	ld	t1, 80(s0)
   125cc: b3 05 b5 40  	sub	a1, a0, a1
   125d0: 13 06 10 00  	li	a2, 1
   125d4: 13 05 04 00  	mv	a0, s0
   125d8: 83 30 81 00  	ld	ra, 8(sp)
   125dc: 03 34 01 00  	ld	s0, 0(sp)
   125e0: 13 01 01 01  	addi	sp, sp, 16
   125e4: 67 00 03 00  	jr	t1

00000000000125e8 <.LBB1_7>:
   125e8: 83 30 81 00  	ld	ra, 8(sp)
   125ec: 03 34 01 00  	ld	s0, 0(sp)
   125f0: 13 01 01 01  	addi	sp, sp, 16
   125f4: 67 80 00 00  	ret

00000000000125f8 <__ofl_lock>:
   125f8: 13 01 01 ff  	addi	sp, sp, -16
   125fc: 23 34 11 00  	sd	ra, 8(sp)
   12600: 37 45 01 00  	lui	a0, 20
   12604: 13 05 05 3d  	addi	a0, a0, 976
   12608: ef 00 40 02  	jal	0x1262c <__lock>
   1260c: 37 45 01 00  	lui	a0, 20
   12610: 13 05 85 3d  	addi	a0, a0, 984
   12614: 83 30 81 00  	ld	ra, 8(sp)
   12618: 13 01 01 01  	addi	sp, sp, 16
   1261c: 67 80 00 00  	ret

0000000000012620 <__ofl_unlock>:
   12620: 37 45 01 00  	lui	a0, 20
   12624: 13 05 05 3d  	addi	a0, a0, 976
   12628: 6f 00 80 0c  	j	0x126f0 <__unlock>

000000000001262c <__lock>:
   1262c: b7 45 01 00  	lui	a1, 20
   12630: 83 a5 45 58  	lw	a1, 1412(a1)
   12634: 63 8c 05 0a  	beqz	a1, 0x126ec <.LBB0_14>
   12638: 13 07 05 00  	mv	a4, a0
   1263c: 03 25 05 00  	lw	a0, 0(a0)
   12640: b7 05 00 80  	lui	a1, 524288
   12644: 1b 86 15 00  	addiw	a2, a1, 1
   12648: 23 20 c7 00  	sw	a2, 0(a4)
   1264c: 63 00 05 0a  	beqz	a0, 0x126ec <.LBB0_14>
   12650: 93 06 00 00  	li	a3, 0
   12654: 9b 87 f5 ff  	addiw	a5, a1, -1
   12658: 93 05 90 00  	li	a1, 9

000000000001265c <.LBB0_3>:
   1265c: 13 86 06 00  	mv	a2, a3
   12660: 63 54 05 00  	bgez	a0, 0x12668 <.LBB0_5>
   12664: 3b 05 f5 00  	addw	a0, a0, a5

0000000000012668 <.LBB0_5>:
   12668: 93 06 05 00  	mv	a3, a0
   1266c: 03 25 07 00  	lw	a0, 0(a4)
   12670: 3b 88 d7 00  	addw	a6, a5, a3
   12674: 1b 08 28 00  	addiw	a6, a6, 2
   12678: 23 20 07 01  	sw	a6, 0(a4)
   1267c: 63 08 d5 06  	beq	a0, a3, 0x126ec <.LBB0_14>
   12680: 9b 06 16 00  	addiw	a3, a2, 1
   12684: e3 6c b6 fc  	bltu	a2, a1, 0x1265c <.LBB0_3>

0000000000012688 <.LBB0_7>:
   12688: 03 25 07 00  	lw	a0, 0(a4)
   1268c: 83 25 07 00  	lw	a1, 0(a4)
   12690: 1b 06 15 00  	addiw	a2, a0, 1
   12694: 23 20 c7 00  	sw	a2, 0(a4)
   12698: e3 98 a5 fe  	bne	a1, a0, 0x12688 <.LBB0_7>
   1269c: 13 08 a0 fd  	li	a6, -38
   126a0: b7 02 00 80  	lui	t0, 524288

00000000000126a4 <.LBB0_9>:
   126a4: 63 5a 06 02  	bgez	a2, 0x126d8 <.LBB0_13>
   126a8: 93 08 20 06  	li	a7, 98
   126ac: 93 05 00 08  	li	a1, 128
   126b0: 13 05 07 00  	mv	a0, a4
   126b4: 93 06 00 00  	li	a3, 0
   126b8: 73 00 00 00  	ecall	
   126bc: 63 1c 05 01  	bne	a0, a6, 0x126d4 <.LBB0_12>
   126c0: 93 08 20 06  	li	a7, 98
   126c4: 13 05 07 00  	mv	a0, a4
   126c8: 93 05 00 00  	li	a1, 0
   126cc: 93 06 00 00  	li	a3, 0
   126d0: 73 00 00 00  	ecall	

00000000000126d4 <.LBB0_12>:
   126d4: 3b 06 f6 00  	addw	a2, a2, a5

00000000000126d8 <.LBB0_13>:
   126d8: 13 05 06 00  	mv	a0, a2
   126dc: 03 26 07 00  	lw	a2, 0(a4)
   126e0: b3 65 55 00  	or	a1, a0, t0
   126e4: 23 20 b7 00  	sw	a1, 0(a4)
   126e8: e3 1e a6 fa  	bne	a2, a0, 0x126a4 <.LBB0_9>

00000000000126ec <.LBB0_14>:
   126ec: 67 80 00 00  	ret

00000000000126f0 <__unlock>:
   126f0: 93 06 05 00  	mv	a3, a0
   126f4: 03 25 05 00  	lw	a0, 0(a0)
   126f8: 63 44 05 00  	bltz	a0, 0x12700 <.LBB1_2>

00000000000126fc <.LBB1_1>:
   126fc: 67 80 00 00  	ret

0000000000012700 <.LBB1_2>:
   12700: 37 05 00 80  	lui	a0, 524288
   12704: 9b 05 f5 ff  	addiw	a1, a0, -1

0000000000012708 <.LBB1_3>:
   12708: 03 a5 06 00  	lw	a0, 0(a3)
   1270c: 03 a6 06 00  	lw	a2, 0(a3)
   12710: 3b 07 b5 00  	addw	a4, a0, a1
   12714: 23 a0 e6 00  	sw	a4, 0(a3)
   12718: e3 18 a6 fe  	bne	a2, a0, 0x12708 <.LBB1_3>
   1271c: b7 05 00 80  	lui	a1, 524288
   12720: 9b 85 15 00  	addiw	a1, a1, 1
   12724: e3 0c b5 fc  	beq	a0, a1, 0x126fc <.LBB1_1>
   12728: 93 08 20 06  	li	a7, 98
   1272c: 93 05 10 08  	li	a1, 129
   12730: 13 06 10 00  	li	a2, 1
   12734: 13 07 a0 fd  	li	a4, -38
   12738: 13 85 06 00  	mv	a0, a3
   1273c: 73 00 00 00  	ecall	
   12740: e3 1e e5 fa  	bne	a0, a4, 0x126fc <.LBB1_1>
   12744: 93 08 20 06  	li	a7, 98
   12748: 93 05 10 00  	li	a1, 1
   1274c: 13 06 10 00  	li	a2, 1
   12750: 13 85 06 00  	mv	a0, a3
   12754: 73 00 00 00  	ecall	
   12758: 67 80 00 00  	ret

000000000001275c <__udivdi3>:
   1275c: 13 01 01 fe  	addi	sp, sp, -32
   12760: 23 3c 11 00  	sd	ra, 24(sp)
   12764: 23 38 81 00  	sd	s0, 16(sp)
   12768: 13 04 01 02  	addi	s0, sp, 32
   1276c: 23 34 a4 fe  	sd	a0, -24(s0)
   12770: 23 30 b4 fe  	sd	a1, -32(s0)
   12774: 03 35 84 fe  	ld	a0, -24(s0)
   12778: 83 35 04 fe  	ld	a1, -32(s0)
   1277c: 13 06 00 00  	li	a2, 0
   12780: ef 00 40 01  	jal	0x12794 <__udivmoddi4>
   12784: 83 30 81 01  	ld	ra, 24(sp)
   12788: 03 34 01 01  	ld	s0, 16(sp)
   1278c: 13 01 01 02  	addi	sp, sp, 32
   12790: 67 80 00 00  	ret

0000000000012794 <__udivmoddi4>:
   12794: 13 01 01 f1  	addi	sp, sp, -240
   12798: 23 34 11 0e  	sd	ra, 232(sp)
   1279c: 23 30 81 0e  	sd	s0, 224(sp)
   127a0: 13 04 01 0f  	addi	s0, sp, 240
   127a4: 23 30 a4 fe  	sd	a0, -32(s0)
   127a8: 23 3c b4 fc  	sd	a1, -40(s0)
   127ac: 23 38 c4 fc  	sd	a2, -48(s0)
   127b0: 13 05 00 02  	li	a0, 32
   127b4: 23 26 a4 fc  	sw	a0, -52(s0)
   127b8: 13 05 00 04  	li	a0, 64
   127bc: 23 24 a4 fc  	sw	a0, -56(s0)
   127c0: 03 35 04 fe  	ld	a0, -32(s0)
   127c4: 23 30 a4 fc  	sd	a0, -64(s0)
   127c8: 03 35 84 fd  	ld	a0, -40(s0)
   127cc: 23 3c a4 fa  	sd	a0, -72(s0)
   127d0: 03 25 44 fc  	lw	a0, -60(s0)
   127d4: 93 05 00 00  	li	a1, 0
   127d8: 63 10 b5 08  	bne	a0, a1, 0x12858 <.LBB0_8>
   127dc: 6f 00 40 00  	j	0x127e0 <.LBB0_1>

00000000000127e0 <.LBB0_1>:
   127e0: 03 25 c4 fb  	lw	a0, -68(s0)
   127e4: 93 05 00 00  	li	a1, 0
   127e8: 63 12 b5 04  	bne	a0, a1, 0x1282c <.LBB0_5>
   127ec: 6f 00 40 00  	j	0x127f0 <.LBB0_2>

00000000000127f0 <.LBB0_2>:
   127f0: 03 35 04 fd  	ld	a0, -48(s0)
   127f4: 93 05 00 00  	li	a1, 0
   127f8: 63 00 b5 02  	beq	a0, a1, 0x12818 <.LBB0_4>
   127fc: 6f 00 40 00  	j	0x12800 <.LBB0_3>

0000000000012800 <.LBB0_3>:
   12800: 03 65 04 fc  	lwu	a0, -64(s0)
   12804: 83 65 84 fb  	lwu	a1, -72(s0)
   12808: ef 00 90 1a  	jal	0x131b0 <__umoddi3>
   1280c: 83 35 04 fd  	ld	a1, -48(s0)
   12810: 23 b0 a5 00  	sd	a0, 0(a1)
   12814: 6f 00 40 00  	j	0x12818 <.LBB0_4>

0000000000012818 <.LBB0_4>:
   12818: 03 65 04 fc  	lwu	a0, -64(s0)
   1281c: 83 65 84 fb  	lwu	a1, -72(s0)
   12820: ef f0 df f3  	jal	0x1275c <__udivdi3>
   12824: 23 34 a4 fe  	sd	a0, -24(s0)
   12828: 6f 00 50 17  	j	0x1319c <.LBB0_56>

000000000001282c <.LBB0_5>:
   1282c: 03 35 04 fd  	ld	a0, -48(s0)
   12830: 93 05 00 00  	li	a1, 0
   12834: 63 0c b5 00  	beq	a0, a1, 0x1284c <.LBB0_7>
   12838: 6f 00 40 00  	j	0x1283c <.LBB0_6>

000000000001283c <.LBB0_6>:
   1283c: 03 65 04 fc  	lwu	a0, -64(s0)
   12840: 83 35 04 fd  	ld	a1, -48(s0)
   12844: 23 b0 a5 00  	sd	a0, 0(a1)
   12848: 6f 00 40 00  	j	0x1284c <.LBB0_7>

000000000001284c <.LBB0_7>:
   1284c: 13 05 00 00  	li	a0, 0
   12850: 23 34 a4 fe  	sd	a0, -24(s0)
   12854: 6f 00 90 14  	j	0x1319c <.LBB0_56>

0000000000012858 <.LBB0_8>:
   12858: 03 25 84 fb  	lw	a0, -72(s0)
   1285c: 93 05 00 00  	li	a1, 0
   12860: 63 1c b5 32  	bne	a0, a1, 0x12b98 <.LBB0_26>
   12864: 6f 00 40 00  	j	0x12868 <.LBB0_9>

0000000000012868 <.LBB0_9>:
   12868: 03 25 c4 fb  	lw	a0, -68(s0)
   1286c: 93 05 00 00  	li	a1, 0
   12870: 63 12 b5 04  	bne	a0, a1, 0x128b4 <.LBB0_13>
   12874: 6f 00 40 00  	j	0x12878 <.LBB0_10>

0000000000012878 <.LBB0_10>:
   12878: 03 35 04 fd  	ld	a0, -48(s0)
   1287c: 93 05 00 00  	li	a1, 0
   12880: 63 00 b5 02  	beq	a0, a1, 0x128a0 <.LBB0_12>
   12884: 6f 00 40 00  	j	0x12888 <.LBB0_11>

0000000000012888 <.LBB0_11>:
   12888: 03 65 44 fc  	lwu	a0, -60(s0)
   1288c: 83 65 84 fb  	lwu	a1, -72(s0)
   12890: ef 00 10 12  	jal	0x131b0 <__umoddi3>
   12894: 83 35 04 fd  	ld	a1, -48(s0)
   12898: 23 b0 a5 00  	sd	a0, 0(a1)
   1289c: 6f 00 40 00  	j	0x128a0 <.LBB0_12>

00000000000128a0 <.LBB0_12>:
   128a0: 03 65 44 fc  	lwu	a0, -60(s0)
   128a4: 83 65 84 fb  	lwu	a1, -72(s0)
   128a8: ef f0 5f eb  	jal	0x1275c <__udivdi3>
   128ac: 23 34 a4 fe  	sd	a0, -24(s0)
   128b0: 6f 00 d0 0e  	j	0x1319c <.LBB0_56>

00000000000128b4 <.LBB0_13>:
   128b4: 03 25 04 fc  	lw	a0, -64(s0)
   128b8: 93 05 00 00  	li	a1, 0
   128bc: 63 1a b5 04  	bne	a0, a1, 0x12910 <.LBB0_17>
   128c0: 6f 00 40 00  	j	0x128c4 <.LBB0_14>

00000000000128c4 <.LBB0_14>:
   128c4: 03 35 04 fd  	ld	a0, -48(s0)
   128c8: 93 05 00 00  	li	a1, 0
   128cc: 63 08 b5 02  	beq	a0, a1, 0x128fc <.LBB0_16>
   128d0: 6f 00 40 00  	j	0x128d4 <.LBB0_15>

00000000000128d4 <.LBB0_15>:
   128d4: 03 65 44 fc  	lwu	a0, -60(s0)
   128d8: 83 65 c4 fb  	lwu	a1, -68(s0)
   128dc: ef 00 50 0d  	jal	0x131b0 <__umoddi3>
   128e0: 23 26 a4 fa  	sw	a0, -84(s0)
   128e4: 13 05 00 00  	li	a0, 0
   128e8: 23 24 a4 fa  	sw	a0, -88(s0)
   128ec: 03 35 84 fa  	ld	a0, -88(s0)
   128f0: 83 35 04 fd  	ld	a1, -48(s0)
   128f4: 23 b0 a5 00  	sd	a0, 0(a1)
   128f8: 6f 00 40 00  	j	0x128fc <.LBB0_16>

00000000000128fc <.LBB0_16>:
   128fc: 03 65 44 fc  	lwu	a0, -60(s0)
   12900: 83 65 c4 fb  	lwu	a1, -68(s0)
   12904: ef f0 9f e5  	jal	0x1275c <__udivdi3>
   12908: 23 34 a4 fe  	sd	a0, -24(s0)
   1290c: 6f 00 10 09  	j	0x1319c <.LBB0_56>

0000000000012910 <.LBB0_17>:
   12910: 03 25 c4 fb  	lw	a0, -68(s0)
   12914: 93 05 f5 ff  	addi	a1, a0, -1
   12918: 33 75 b5 00  	and	a0, a0, a1
   1291c: 1b 05 05 00  	sext.w	a0, a0
   12920: 93 05 00 00  	li	a1, 0
   12924: 63 14 b5 0c  	bne	a0, a1, 0x129ec <.LBB0_21>
   12928: 6f 00 40 00  	j	0x1292c <.LBB0_18>

000000000001292c <.LBB0_18>:
   1292c: 03 35 04 fd  	ld	a0, -48(s0)
   12930: 93 05 00 00  	li	a1, 0
   12934: 63 0a b5 02  	beq	a0, a1, 0x12968 <.LBB0_20>
   12938: 6f 00 40 00  	j	0x1293c <.LBB0_19>

000000000001293c <.LBB0_19>:
   1293c: 03 25 04 fc  	lw	a0, -64(s0)
   12940: 23 24 a4 fa  	sw	a0, -88(s0)
   12944: 03 25 44 fc  	lw	a0, -60(s0)
   12948: 83 25 c4 fb  	lw	a1, -68(s0)
   1294c: 93 85 f5 ff  	addi	a1, a1, -1
   12950: 33 75 b5 00  	and	a0, a0, a1
   12954: 23 26 a4 fa  	sw	a0, -84(s0)
   12958: 03 35 84 fa  	ld	a0, -88(s0)
   1295c: 83 35 04 fd  	ld	a1, -48(s0)
   12960: 23 b0 a5 00  	sd	a0, 0(a1)
   12964: 6f 00 40 00  	j	0x12968 <.LBB0_20>

0000000000012968 <.LBB0_20>:
   12968: 03 25 44 fc  	lw	a0, -60(s0)
   1296c: 23 38 a4 f8  	sd	a0, -112(s0)
   12970: 03 25 c4 fb  	lw	a0, -68(s0)
   12974: 9b 05 f5 ff  	addiw	a1, a0, -1
   12978: 13 45 f5 ff  	not	a0, a0
   1297c: 33 75 b5 00  	and	a0, a0, a1
   12980: 93 55 15 00  	srli	a1, a0, 1
   12984: 37 56 55 55  	lui	a2, 349525
   12988: 1b 06 56 55  	addiw	a2, a2, 1365
   1298c: b3 f5 c5 00  	and	a1, a1, a2
   12990: bb 05 b5 40  	subw	a1, a0, a1
   12994: 37 35 33 33  	lui	a0, 209715
   12998: 1b 06 35 33  	addiw	a2, a0, 819
   1299c: 33 f5 c5 00  	and	a0, a1, a2
   129a0: 93 d5 25 00  	srli	a1, a1, 2
   129a4: b3 f5 c5 00  	and	a1, a1, a2
   129a8: 33 05 b5 00  	add	a0, a0, a1
   129ac: 93 55 45 00  	srli	a1, a0, 4
   129b0: 33 05 b5 00  	add	a0, a0, a1
   129b4: b7 15 0f 0f  	lui	a1, 61681
   129b8: 9b 85 f5 f0  	addiw	a1, a1, -241
   129bc: 33 75 b5 00  	and	a0, a0, a1
   129c0: b7 05 01 01  	lui	a1, 4112
   129c4: 9b 85 15 10  	addiw	a1, a1, 257
   129c8: ef f0 cf bc  	jal	0x11d94 <__muldi3>
   129cc: 93 05 05 00  	mv	a1, a0
   129d0: 03 35 04 f9  	ld	a0, -112(s0)
   129d4: 93 d5 85 01  	srli	a1, a1, 24
   129d8: 3b 55 b5 00  	srlw	a0, a0, a1
   129dc: 13 15 05 02  	slli	a0, a0, 32
   129e0: 13 55 05 02  	srli	a0, a0, 32
   129e4: 23 34 a4 fe  	sd	a0, -24(s0)
   129e8: 6f 00 40 7b  	j	0x1319c <.LBB0_56>

00000000000129ec <.LBB0_21>:
   129ec: 03 65 c4 fb  	lwu	a0, -68(s0)
   129f0: 93 55 15 00  	srli	a1, a0, 1
   129f4: 33 65 b5 00  	or	a0, a0, a1
   129f8: 93 55 25 00  	srli	a1, a0, 2
   129fc: 33 65 b5 00  	or	a0, a0, a1
   12a00: 93 55 45 00  	srli	a1, a0, 4
   12a04: 33 65 b5 00  	or	a0, a0, a1
   12a08: 93 55 85 00  	srli	a1, a0, 8
   12a0c: 33 65 b5 00  	or	a0, a0, a1
   12a10: 93 55 05 01  	srli	a1, a0, 16
   12a14: 33 65 b5 00  	or	a0, a0, a1
   12a18: 13 45 f5 ff  	not	a0, a0
   12a1c: 93 55 15 00  	srli	a1, a0, 1
   12a20: 37 56 55 55  	lui	a2, 349525
   12a24: 1b 06 56 55  	addiw	a2, a2, 1365
   12a28: 23 34 c4 f6  	sd	a2, -152(s0)
   12a2c: b3 f5 c5 00  	and	a1, a1, a2
   12a30: bb 05 b5 40  	subw	a1, a0, a1
   12a34: 37 35 33 33  	lui	a0, 209715
   12a38: 1b 06 35 33  	addiw	a2, a0, 819
   12a3c: 23 38 c4 f6  	sd	a2, -144(s0)
   12a40: 33 f5 c5 00  	and	a0, a1, a2
   12a44: 93 d5 25 00  	srli	a1, a1, 2
   12a48: b3 f5 c5 00  	and	a1, a1, a2
   12a4c: 33 05 b5 00  	add	a0, a0, a1
   12a50: 93 55 45 00  	srli	a1, a0, 4
   12a54: 33 05 b5 00  	add	a0, a0, a1
   12a58: b7 15 0f 0f  	lui	a1, 61681
   12a5c: 9b 85 f5 f0  	addiw	a1, a1, -241
   12a60: 23 3c b4 f6  	sd	a1, -136(s0)
   12a64: 33 75 b5 00  	and	a0, a0, a1
   12a68: b7 05 01 01  	lui	a1, 4112
   12a6c: 9b 85 15 10  	addiw	a1, a1, 257
   12a70: 23 30 b4 f8  	sd	a1, -128(s0)
   12a74: ef f0 0f b2  	jal	0x11d94 <__muldi3>
   12a78: 83 37 84 f6  	ld	a5, -152(s0)
   12a7c: 03 37 04 f7  	ld	a4, -144(s0)
   12a80: 03 36 84 f7  	ld	a2, -136(s0)
   12a84: 83 35 04 f8  	ld	a1, -128(s0)
   12a88: 1b 55 85 01  	srliw	a0, a0, 24
   12a8c: 23 34 a4 f8  	sd	a0, -120(s0)
   12a90: 03 65 44 fc  	lwu	a0, -60(s0)
   12a94: 93 56 15 00  	srli	a3, a0, 1
   12a98: 33 65 d5 00  	or	a0, a0, a3
   12a9c: 93 56 25 00  	srli	a3, a0, 2
   12aa0: 33 65 d5 00  	or	a0, a0, a3
   12aa4: 93 56 45 00  	srli	a3, a0, 4
   12aa8: 33 65 d5 00  	or	a0, a0, a3
   12aac: 93 56 85 00  	srli	a3, a0, 8
   12ab0: 33 65 d5 00  	or	a0, a0, a3
   12ab4: 93 56 05 01  	srli	a3, a0, 16
   12ab8: 33 65 d5 00  	or	a0, a0, a3
   12abc: 13 45 f5 ff  	not	a0, a0
   12ac0: 93 56 15 00  	srli	a3, a0, 1
   12ac4: b3 f6 f6 00  	and	a3, a3, a5
   12ac8: bb 06 d5 40  	subw	a3, a0, a3
   12acc: 33 f5 e6 00  	and	a0, a3, a4
   12ad0: 93 d6 26 00  	srli	a3, a3, 2
   12ad4: b3 f6 e6 00  	and	a3, a3, a4
   12ad8: 33 05 d5 00  	add	a0, a0, a3
   12adc: 93 56 45 00  	srli	a3, a0, 4
   12ae0: 33 05 d5 00  	add	a0, a0, a3
   12ae4: 33 75 c5 00  	and	a0, a0, a2
   12ae8: ef f0 cf aa  	jal	0x11d94 <__muldi3>
   12aec: 93 05 05 00  	mv	a1, a0
   12af0: 03 35 84 f8  	ld	a0, -120(s0)
   12af4: 9b d5 85 01  	srliw	a1, a1, 24
   12af8: 3b 05 b5 40  	subw	a0, a0, a1
   12afc: 23 22 a4 fa  	sw	a0, -92(s0)
   12b00: 03 25 44 fa  	lw	a0, -92(s0)
   12b04: 93 05 f0 01  	li	a1, 31
   12b08: 63 6a b5 02  	bltu	a0, a1, 0x12b3c <.LBB0_25>
   12b0c: 6f 00 40 00  	j	0x12b10 <.LBB0_22>

0000000000012b10 <.LBB0_22>:
   12b10: 03 35 04 fd  	ld	a0, -48(s0)
   12b14: 93 05 00 00  	li	a1, 0
   12b18: 63 0c b5 00  	beq	a0, a1, 0x12b30 <.LBB0_24>
   12b1c: 6f 00 40 00  	j	0x12b20 <.LBB0_23>

0000000000012b20 <.LBB0_23>:
   12b20: 03 35 04 fc  	ld	a0, -64(s0)
   12b24: 83 35 04 fd  	ld	a1, -48(s0)
   12b28: 23 b0 a5 00  	sd	a0, 0(a1)
   12b2c: 6f 00 40 00  	j	0x12b30 <.LBB0_24>

0000000000012b30 <.LBB0_24>:
   12b30: 13 05 00 00  	li	a0, 0
   12b34: 23 34 a4 fe  	sd	a0, -24(s0)
   12b38: 6f 00 40 66  	j	0x1319c <.LBB0_56>

0000000000012b3c <.LBB0_25>:
   12b3c: 03 25 44 fa  	lw	a0, -92(s0)
   12b40: 1b 05 15 00  	addiw	a0, a0, 1
   12b44: 23 22 a4 fa  	sw	a0, -92(s0)
   12b48: 13 05 00 00  	li	a0, 0
   12b4c: 23 28 a4 fa  	sw	a0, -80(s0)
   12b50: 03 25 04 fc  	lw	a0, -64(s0)
   12b54: 83 25 44 fa  	lw	a1, -92(s0)
   12b58: bb 05 b0 40  	negw	a1, a1
   12b5c: 3b 15 b5 00  	sllw	a0, a0, a1
   12b60: 23 2a a4 fa  	sw	a0, -76(s0)
   12b64: 03 25 44 fc  	lw	a0, -60(s0)
   12b68: 83 65 44 fa  	lwu	a1, -92(s0)
   12b6c: 3b 55 b5 00  	srlw	a0, a0, a1
   12b70: 23 26 a4 fa  	sw	a0, -84(s0)
   12b74: 03 25 44 fc  	lw	a0, -60(s0)
   12b78: 03 26 44 fa  	lw	a2, -92(s0)
   12b7c: bb 05 c0 40  	negw	a1, a2
   12b80: 3b 15 b5 00  	sllw	a0, a0, a1
   12b84: 83 25 04 fc  	lw	a1, -64(s0)
   12b88: bb d5 c5 00  	srlw	a1, a1, a2
   12b8c: 33 65 b5 00  	or	a0, a0, a1
   12b90: 23 24 a4 fa  	sw	a0, -88(s0)
   12b94: 6f 00 00 50  	j	0x13094 <.LBB0_49>

0000000000012b98 <.LBB0_26>:
   12b98: 03 25 c4 fb  	lw	a0, -68(s0)
   12b9c: 93 05 00 00  	li	a1, 0
   12ba0: 63 1a b5 30  	bne	a0, a1, 0x12eb4 <.LBB0_40>
   12ba4: 6f 00 40 00  	j	0x12ba8 <.LBB0_27>

0000000000012ba8 <.LBB0_27>:
   12ba8: 03 25 84 fb  	lw	a0, -72(s0)
   12bac: 93 05 f5 ff  	addi	a1, a0, -1
   12bb0: 33 75 b5 00  	and	a0, a0, a1
   12bb4: 1b 05 05 00  	sext.w	a0, a0
   12bb8: 93 05 00 00  	li	a1, 0
   12bbc: 63 18 b5 0e  	bne	a0, a1, 0x12cac <.LBB0_33>
   12bc0: 6f 00 40 00  	j	0x12bc4 <.LBB0_28>

0000000000012bc4 <.LBB0_28>:
   12bc4: 03 35 04 fd  	ld	a0, -48(s0)
   12bc8: 93 05 00 00  	li	a1, 0
   12bcc: 63 02 b5 02  	beq	a0, a1, 0x12bf0 <.LBB0_30>
   12bd0: 6f 00 40 00  	j	0x12bd4 <.LBB0_29>

0000000000012bd4 <.LBB0_29>:
   12bd4: 83 65 04 fc  	lwu	a1, -64(s0)
   12bd8: 03 25 84 fb  	lw	a0, -72(s0)
   12bdc: 13 05 f5 ff  	addi	a0, a0, -1
   12be0: 33 75 b5 00  	and	a0, a0, a1
   12be4: 83 35 04 fd  	ld	a1, -48(s0)
   12be8: 23 b0 a5 00  	sd	a0, 0(a1)
   12bec: 6f 00 40 00  	j	0x12bf0 <.LBB0_30>

0000000000012bf0 <.LBB0_30>:
   12bf0: 03 25 84 fb  	lw	a0, -72(s0)
   12bf4: 93 05 10 00  	li	a1, 1
   12bf8: 63 1a b5 00  	bne	a0, a1, 0x12c0c <.LBB0_32>
   12bfc: 6f 00 40 00  	j	0x12c00 <.LBB0_31>

0000000000012c00 <.LBB0_31>:
   12c00: 03 35 04 fc  	ld	a0, -64(s0)
   12c04: 23 34 a4 fe  	sd	a0, -24(s0)
   12c08: 6f 00 40 59  	j	0x1319c <.LBB0_56>

0000000000012c0c <.LBB0_32>:
   12c0c: 03 25 84 fb  	lw	a0, -72(s0)
   12c10: 9b 05 f5 ff  	addiw	a1, a0, -1
   12c14: 13 45 f5 ff  	not	a0, a0
   12c18: 33 75 b5 00  	and	a0, a0, a1
   12c1c: 93 55 15 00  	srli	a1, a0, 1
   12c20: 37 56 55 55  	lui	a2, 349525
   12c24: 1b 06 56 55  	addiw	a2, a2, 1365
   12c28: b3 f5 c5 00  	and	a1, a1, a2
   12c2c: bb 05 b5 40  	subw	a1, a0, a1
   12c30: 37 35 33 33  	lui	a0, 209715
   12c34: 1b 06 35 33  	addiw	a2, a0, 819
   12c38: 33 f5 c5 00  	and	a0, a1, a2
   12c3c: 93 d5 25 00  	srli	a1, a1, 2
   12c40: b3 f5 c5 00  	and	a1, a1, a2
   12c44: 33 05 b5 00  	add	a0, a0, a1
   12c48: 93 55 45 00  	srli	a1, a0, 4
   12c4c: 33 05 b5 00  	add	a0, a0, a1
   12c50: b7 15 0f 0f  	lui	a1, 61681
   12c54: 9b 85 f5 f0  	addiw	a1, a1, -241
   12c58: 33 75 b5 00  	and	a0, a0, a1
   12c5c: b7 05 01 01  	lui	a1, 4112
   12c60: 9b 85 15 10  	addiw	a1, a1, 257
   12c64: ef f0 0f 93  	jal	0x11d94 <__muldi3>
   12c68: 1b 55 85 01  	srliw	a0, a0, 24
   12c6c: 23 22 a4 fa  	sw	a0, -92(s0)
   12c70: 03 25 44 fc  	lw	a0, -60(s0)
   12c74: 83 65 44 fa  	lwu	a1, -92(s0)
   12c78: 3b 55 b5 00  	srlw	a0, a0, a1
   12c7c: 23 2a a4 fa  	sw	a0, -76(s0)
   12c80: 03 25 44 fc  	lw	a0, -60(s0)
   12c84: 03 26 44 fa  	lw	a2, -92(s0)
   12c88: bb 05 c0 40  	negw	a1, a2
   12c8c: 3b 15 b5 00  	sllw	a0, a0, a1
   12c90: 83 25 04 fc  	lw	a1, -64(s0)
   12c94: bb d5 c5 00  	srlw	a1, a1, a2
   12c98: 33 65 b5 00  	or	a0, a0, a1
   12c9c: 23 28 a4 fa  	sw	a0, -80(s0)
   12ca0: 03 35 04 fb  	ld	a0, -80(s0)
   12ca4: 23 34 a4 fe  	sd	a0, -24(s0)
   12ca8: 6f 00 40 4f  	j	0x1319c <.LBB0_56>

0000000000012cac <.LBB0_33>:
   12cac: 03 65 84 fb  	lwu	a0, -72(s0)
   12cb0: 93 55 15 00  	srli	a1, a0, 1
   12cb4: 33 65 b5 00  	or	a0, a0, a1
   12cb8: 93 55 25 00  	srli	a1, a0, 2
   12cbc: 33 65 b5 00  	or	a0, a0, a1
   12cc0: 93 55 45 00  	srli	a1, a0, 4
   12cc4: 33 65 b5 00  	or	a0, a0, a1
   12cc8: 93 55 85 00  	srli	a1, a0, 8
   12ccc: 33 65 b5 00  	or	a0, a0, a1
   12cd0: 93 55 05 01  	srli	a1, a0, 16
   12cd4: 33 65 b5 00  	or	a0, a0, a1
   12cd8: 13 45 f5 ff  	not	a0, a0
   12cdc: 93 55 15 00  	srli	a1, a0, 1
   12ce0: 37 56 55 55  	lui	a2, 349525
   12ce4: 1b 06 56 55  	addiw	a2, a2, 1365
   12ce8: 23 30 c4 f4  	sd	a2, -192(s0)
   12cec: b3 f5 c5 00  	and	a1, a1, a2
   12cf0: bb 05 b5 40  	subw	a1, a0, a1
   12cf4: 37 35 33 33  	lui	a0, 209715
   12cf8: 1b 06 35 33  	addiw	a2, a0, 819
   12cfc: 23 34 c4 f4  	sd	a2, -184(s0)
   12d00: 33 f5 c5 00  	and	a0, a1, a2
   12d04: 93 d5 25 00  	srli	a1, a1, 2
   12d08: b3 f5 c5 00  	and	a1, a1, a2
   12d0c: 33 05 b5 00  	add	a0, a0, a1
   12d10: 93 55 45 00  	srli	a1, a0, 4
   12d14: 33 05 b5 00  	add	a0, a0, a1
   12d18: b7 15 0f 0f  	lui	a1, 61681
   12d1c: 9b 85 f5 f0  	addiw	a1, a1, -241
   12d20: 23 38 b4 f4  	sd	a1, -176(s0)
   12d24: 33 75 b5 00  	and	a0, a0, a1
   12d28: b7 05 01 01  	lui	a1, 4112
   12d2c: 9b 85 15 10  	addiw	a1, a1, 257
   12d30: 23 3c b4 f4  	sd	a1, -168(s0)
   12d34: ef f0 0f 86  	jal	0x11d94 <__muldi3>
   12d38: 83 37 04 f4  	ld	a5, -192(s0)
   12d3c: 03 37 84 f4  	ld	a4, -184(s0)
   12d40: 03 36 04 f5  	ld	a2, -176(s0)
   12d44: 83 35 84 f5  	ld	a1, -168(s0)
   12d48: 1b 55 85 01  	srliw	a0, a0, 24
   12d4c: 23 30 a4 f6  	sd	a0, -160(s0)
   12d50: 03 65 44 fc  	lwu	a0, -60(s0)
   12d54: 93 56 15 00  	srli	a3, a0, 1
   12d58: 33 65 d5 00  	or	a0, a0, a3
   12d5c: 93 56 25 00  	srli	a3, a0, 2
   12d60: 33 65 d5 00  	or	a0, a0, a3
   12d64: 93 56 45 00  	srli	a3, a0, 4
   12d68: 33 65 d5 00  	or	a0, a0, a3
   12d6c: 93 56 85 00  	srli	a3, a0, 8
   12d70: 33 65 d5 00  	or	a0, a0, a3
   12d74: 93 56 05 01  	srli	a3, a0, 16
   12d78: 33 65 d5 00  	or	a0, a0, a3
   12d7c: 13 45 f5 ff  	not	a0, a0
   12d80: 93 56 15 00  	srli	a3, a0, 1
   12d84: b3 f6 f6 00  	and	a3, a3, a5
   12d88: bb 06 d5 40  	subw	a3, a0, a3
   12d8c: 33 f5 e6 00  	and	a0, a3, a4
   12d90: 93 d6 26 00  	srli	a3, a3, 2
   12d94: b3 f6 e6 00  	and	a3, a3, a4
   12d98: 33 05 d5 00  	add	a0, a0, a3
   12d9c: 93 56 45 00  	srli	a3, a0, 4
   12da0: 33 05 d5 00  	add	a0, a0, a3
   12da4: 33 75 c5 00  	and	a0, a0, a2
   12da8: ef e0 df fe  	jal	0x11d94 <__muldi3>
   12dac: 93 05 05 00  	mv	a1, a0
   12db0: 03 35 04 f6  	ld	a0, -160(s0)
   12db4: 9b d5 85 01  	srliw	a1, a1, 24
   12db8: 3b 05 b5 40  	subw	a0, a0, a1
   12dbc: 1b 05 15 02  	addiw	a0, a0, 33
   12dc0: 23 22 a4 fa  	sw	a0, -92(s0)
   12dc4: 03 25 44 fa  	lw	a0, -92(s0)
   12dc8: 93 05 00 02  	li	a1, 32
   12dcc: 63 14 b5 02  	bne	a0, a1, 0x12df4 <.LBB0_35>
   12dd0: 6f 00 40 00  	j	0x12dd4 <.LBB0_34>

0000000000012dd4 <.LBB0_34>:
   12dd4: 13 05 00 00  	li	a0, 0
   12dd8: 23 28 a4 fa  	sw	a0, -80(s0)
   12ddc: 83 25 04 fc  	lw	a1, -64(s0)
   12de0: 23 2a b4 fa  	sw	a1, -76(s0)
   12de4: 23 26 a4 fa  	sw	a0, -84(s0)
   12de8: 03 25 44 fc  	lw	a0, -60(s0)
   12dec: 23 24 a4 fa  	sw	a0, -88(s0)
   12df0: 6f 00 00 0c  	j	0x12eb0 <.LBB0_39>

0000000000012df4 <.LBB0_35>:
   12df4: 83 25 44 fa  	lw	a1, -92(s0)
   12df8: 13 05 f0 01  	li	a0, 31
   12dfc: 63 6c b5 04  	bltu	a0, a1, 0x12e54 <.LBB0_37>
   12e00: 6f 00 40 00  	j	0x12e04 <.LBB0_36>

0000000000012e04 <.LBB0_36>:
   12e04: 13 05 00 00  	li	a0, 0
   12e08: 23 28 a4 fa  	sw	a0, -80(s0)
   12e0c: 03 25 04 fc  	lw	a0, -64(s0)
   12e10: 83 25 44 fa  	lw	a1, -92(s0)
   12e14: bb 05 b0 40  	negw	a1, a1
   12e18: 3b 15 b5 00  	sllw	a0, a0, a1
   12e1c: 23 2a a4 fa  	sw	a0, -76(s0)
   12e20: 03 25 44 fc  	lw	a0, -60(s0)
   12e24: 83 65 44 fa  	lwu	a1, -92(s0)
   12e28: 3b 55 b5 00  	srlw	a0, a0, a1
   12e2c: 23 26 a4 fa  	sw	a0, -84(s0)
   12e30: 03 25 44 fc  	lw	a0, -60(s0)
   12e34: 03 26 44 fa  	lw	a2, -92(s0)
   12e38: bb 05 c0 40  	negw	a1, a2
   12e3c: 3b 15 b5 00  	sllw	a0, a0, a1
   12e40: 83 25 04 fc  	lw	a1, -64(s0)
   12e44: bb d5 c5 00  	srlw	a1, a1, a2
   12e48: 33 65 b5 00  	or	a0, a0, a1
   12e4c: 23 24 a4 fa  	sw	a0, -88(s0)
   12e50: 6f 00 c0 05  	j	0x12eac <.LBB0_38>

0000000000012e54 <.LBB0_37>:
   12e54: 03 25 04 fc  	lw	a0, -64(s0)
   12e58: 83 25 44 fa  	lw	a1, -92(s0)
   12e5c: bb 05 b0 40  	negw	a1, a1
   12e60: 3b 15 b5 00  	sllw	a0, a0, a1
   12e64: 23 28 a4 fa  	sw	a0, -80(s0)
   12e68: 03 25 44 fc  	lw	a0, -60(s0)
   12e6c: 03 26 44 fa  	lw	a2, -92(s0)
   12e70: bb 05 c0 40  	negw	a1, a2
   12e74: 3b 15 b5 00  	sllw	a0, a0, a1
   12e78: 83 25 04 fc  	lw	a1, -64(s0)
   12e7c: 1b 06 06 fe  	addiw	a2, a2, -32
   12e80: bb d5 c5 00  	srlw	a1, a1, a2
   12e84: 33 65 b5 00  	or	a0, a0, a1
   12e88: 23 2a a4 fa  	sw	a0, -76(s0)
   12e8c: 13 05 00 00  	li	a0, 0
   12e90: 23 26 a4 fa  	sw	a0, -84(s0)
   12e94: 03 25 44 fc  	lw	a0, -60(s0)
   12e98: 83 25 44 fa  	lw	a1, -92(s0)
   12e9c: 9b 85 05 fe  	addiw	a1, a1, -32
   12ea0: 3b 55 b5 00  	srlw	a0, a0, a1
   12ea4: 23 24 a4 fa  	sw	a0, -88(s0)
   12ea8: 6f 00 40 00  	j	0x12eac <.LBB0_38>

0000000000012eac <.LBB0_38>:
   12eac: 6f 00 40 00  	j	0x12eb0 <.LBB0_39>

0000000000012eb0 <.LBB0_39>:
   12eb0: 6f 00 00 1e  	j	0x13090 <.LBB0_48>

0000000000012eb4 <.LBB0_40>:
   12eb4: 03 65 c4 fb  	lwu	a0, -68(s0)
   12eb8: 93 55 15 00  	srli	a1, a0, 1
   12ebc: 33 65 b5 00  	or	a0, a0, a1
   12ec0: 93 55 25 00  	srli	a1, a0, 2
   12ec4: 33 65 b5 00  	or	a0, a0, a1
   12ec8: 93 55 45 00  	srli	a1, a0, 4
   12ecc: 33 65 b5 00  	or	a0, a0, a1
   12ed0: 93 55 85 00  	srli	a1, a0, 8
   12ed4: 33 65 b5 00  	or	a0, a0, a1
   12ed8: 93 55 05 01  	srli	a1, a0, 16
   12edc: 33 65 b5 00  	or	a0, a0, a1
   12ee0: 13 45 f5 ff  	not	a0, a0
   12ee4: 93 55 15 00  	srli	a1, a0, 1
   12ee8: 37 56 55 55  	lui	a2, 349525
   12eec: 1b 06 56 55  	addiw	a2, a2, 1365
   12ef0: 23 3c c4 f0  	sd	a2, -232(s0)
   12ef4: b3 f5 c5 00  	and	a1, a1, a2
   12ef8: bb 05 b5 40  	subw	a1, a0, a1
   12efc: 37 35 33 33  	lui	a0, 209715
   12f00: 1b 06 35 33  	addiw	a2, a0, 819
   12f04: 23 30 c4 f2  	sd	a2, -224(s0)
   12f08: 33 f5 c5 00  	and	a0, a1, a2
   12f0c: 93 d5 25 00  	srli	a1, a1, 2
   12f10: b3 f5 c5 00  	and	a1, a1, a2
   12f14: 33 05 b5 00  	add	a0, a0, a1
   12f18: 93 55 45 00  	srli	a1, a0, 4
   12f1c: 33 05 b5 00  	add	a0, a0, a1
   12f20: b7 15 0f 0f  	lui	a1, 61681
   12f24: 9b 85 f5 f0  	addiw	a1, a1, -241
   12f28: 23 34 b4 f2  	sd	a1, -216(s0)
   12f2c: 33 75 b5 00  	and	a0, a0, a1
   12f30: b7 05 01 01  	lui	a1, 4112
   12f34: 9b 85 15 10  	addiw	a1, a1, 257
   12f38: 23 38 b4 f2  	sd	a1, -208(s0)
   12f3c: ef e0 9f e5  	jal	0x11d94 <__muldi3>
   12f40: 83 37 84 f1  	ld	a5, -232(s0)
   12f44: 03 37 04 f2  	ld	a4, -224(s0)
   12f48: 03 36 84 f2  	ld	a2, -216(s0)
   12f4c: 83 35 04 f3  	ld	a1, -208(s0)
   12f50: 1b 55 85 01  	srliw	a0, a0, 24
   12f54: 23 3c a4 f2  	sd	a0, -200(s0)
   12f58: 03 65 44 fc  	lwu	a0, -60(s0)
   12f5c: 93 56 15 00  	srli	a3, a0, 1
   12f60: 33 65 d5 00  	or	a0, a0, a3
   12f64: 93 56 25 00  	srli	a3, a0, 2
   12f68: 33 65 d5 00  	or	a0, a0, a3
   12f6c: 93 56 45 00  	srli	a3, a0, 4
   12f70: 33 65 d5 00  	or	a0, a0, a3
   12f74: 93 56 85 00  	srli	a3, a0, 8
   12f78: 33 65 d5 00  	or	a0, a0, a3
   12f7c: 93 56 05 01  	srli	a3, a0, 16
   12f80: 33 65 d5 00  	or	a0, a0, a3
   12f84: 13 45 f5 ff  	not	a0, a0
   12f88: 93 56 15 00  	srli	a3, a0, 1
   12f8c: b3 f6 f6 00  	and	a3, a3, a5
   12f90: bb 06 d5 40  	subw	a3, a0, a3
   12f94: 33 f5 e6 00  	and	a0, a3, a4
   12f98: 93 d6 26 00  	srli	a3, a3, 2
   12f9c: b3 f6 e6 00  	and	a3, a3, a4
   12fa0: 33 05 d5 00  	add	a0, a0, a3
   12fa4: 93 56 45 00  	srli	a3, a0, 4
   12fa8: 33 05 d5 00  	add	a0, a0, a3
   12fac: 33 75 c5 00  	and	a0, a0, a2
   12fb0: ef e0 5f de  	jal	0x11d94 <__muldi3>
   12fb4: 93 05 05 00  	mv	a1, a0
   12fb8: 03 35 84 f3  	ld	a0, -200(s0)
   12fbc: 9b d5 85 01  	srliw	a1, a1, 24
   12fc0: 3b 05 b5 40  	subw	a0, a0, a1
   12fc4: 23 22 a4 fa  	sw	a0, -92(s0)
   12fc8: 03 25 44 fa  	lw	a0, -92(s0)
   12fcc: 93 05 00 02  	li	a1, 32
   12fd0: 63 6a b5 02  	bltu	a0, a1, 0x13004 <.LBB0_44>
   12fd4: 6f 00 40 00  	j	0x12fd8 <.LBB0_41>

0000000000012fd8 <.LBB0_41>:
   12fd8: 03 35 04 fd  	ld	a0, -48(s0)
   12fdc: 93 05 00 00  	li	a1, 0
   12fe0: 63 0c b5 00  	beq	a0, a1, 0x12ff8 <.LBB0_43>
   12fe4: 6f 00 40 00  	j	0x12fe8 <.LBB0_42>

0000000000012fe8 <.LBB0_42>:
   12fe8: 03 35 04 fc  	ld	a0, -64(s0)
   12fec: 83 35 04 fd  	ld	a1, -48(s0)
   12ff0: 23 b0 a5 00  	sd	a0, 0(a1)
   12ff4: 6f 00 40 00  	j	0x12ff8 <.LBB0_43>

0000000000012ff8 <.LBB0_43>:
   12ff8: 13 05 00 00  	li	a0, 0
   12ffc: 23 34 a4 fe  	sd	a0, -24(s0)
   13000: 6f 00 c0 19  	j	0x1319c <.LBB0_56>

0000000000013004 <.LBB0_44>:
   13004: 03 25 44 fa  	lw	a0, -92(s0)
   13008: 1b 05 15 00  	addiw	a0, a0, 1
   1300c: 23 22 a4 fa  	sw	a0, -92(s0)
   13010: 13 05 00 00  	li	a0, 0
   13014: 23 28 a4 fa  	sw	a0, -80(s0)
   13018: 03 25 44 fa  	lw	a0, -92(s0)
   1301c: 93 05 00 02  	li	a1, 32
   13020: 63 12 b5 02  	bne	a0, a1, 0x13044 <.LBB0_46>
   13024: 6f 00 40 00  	j	0x13028 <.LBB0_45>

0000000000013028 <.LBB0_45>:
   13028: 03 25 04 fc  	lw	a0, -64(s0)
   1302c: 23 2a a4 fa  	sw	a0, -76(s0)
   13030: 13 05 00 00  	li	a0, 0
   13034: 23 26 a4 fa  	sw	a0, -84(s0)
   13038: 03 25 44 fc  	lw	a0, -60(s0)
   1303c: 23 24 a4 fa  	sw	a0, -88(s0)
   13040: 6f 00 c0 04  	j	0x1308c <.LBB0_47>

0000000000013044 <.LBB0_46>:
   13044: 03 25 04 fc  	lw	a0, -64(s0)
   13048: 83 25 44 fa  	lw	a1, -92(s0)
   1304c: bb 05 b0 40  	negw	a1, a1
   13050: 3b 15 b5 00  	sllw	a0, a0, a1
   13054: 23 2a a4 fa  	sw	a0, -76(s0)
   13058: 03 25 44 fc  	lw	a0, -60(s0)
   1305c: 83 65 44 fa  	lwu	a1, -92(s0)
   13060: 3b 55 b5 00  	srlw	a0, a0, a1
   13064: 23 26 a4 fa  	sw	a0, -84(s0)
   13068: 03 25 44 fc  	lw	a0, -60(s0)
   1306c: 03 26 44 fa  	lw	a2, -92(s0)
   13070: bb 05 c0 40  	negw	a1, a2
   13074: 3b 15 b5 00  	sllw	a0, a0, a1
   13078: 83 25 04 fc  	lw	a1, -64(s0)
   1307c: bb d5 c5 00  	srlw	a1, a1, a2
   13080: 33 65 b5 00  	or	a0, a0, a1
   13084: 23 24 a4 fa  	sw	a0, -88(s0)
   13088: 6f 00 40 00  	j	0x1308c <.LBB0_47>

000000000001308c <.LBB0_47>:
   1308c: 6f 00 40 00  	j	0x13090 <.LBB0_48>

0000000000013090 <.LBB0_48>:
   13090: 6f 00 40 00  	j	0x13094 <.LBB0_49>

0000000000013094 <.LBB0_49>:
   13094: 13 05 00 00  	li	a0, 0
   13098: 23 20 a4 fa  	sw	a0, -96(s0)
   1309c: 6f 00 40 00  	j	0x130a0 <.LBB0_50>

00000000000130a0 <.LBB0_50>:
   130a0: 03 25 44 fa  	lw	a0, -92(s0)
   130a4: 93 05 00 00  	li	a1, 0
   130a8: 63 0a b5 0a  	beq	a0, a1, 0x1315c <.LBB0_53>
   130ac: 6f 00 40 00  	j	0x130b0 <.LBB0_51>

00000000000130b0 <.LBB0_51>:
   130b0: 03 25 c4 fa  	lw	a0, -84(s0)
   130b4: 13 15 15 00  	slli	a0, a0, 1
   130b8: 83 65 84 fa  	lwu	a1, -88(s0)
   130bc: 93 d5 f5 01  	srli	a1, a1, 31
   130c0: 33 65 b5 00  	or	a0, a0, a1
   130c4: 23 26 a4 fa  	sw	a0, -84(s0)
   130c8: 03 25 84 fa  	lw	a0, -88(s0)
   130cc: 13 15 15 00  	slli	a0, a0, 1
   130d0: 83 65 44 fb  	lwu	a1, -76(s0)
   130d4: 93 d5 f5 01  	srli	a1, a1, 31
   130d8: 33 65 b5 00  	or	a0, a0, a1
   130dc: 23 24 a4 fa  	sw	a0, -88(s0)
   130e0: 03 25 44 fb  	lw	a0, -76(s0)
   130e4: 13 15 15 00  	slli	a0, a0, 1
   130e8: 83 65 04 fb  	lwu	a1, -80(s0)
   130ec: 93 d5 f5 01  	srli	a1, a1, 31
   130f0: 33 65 b5 00  	or	a0, a0, a1
   130f4: 23 2a a4 fa  	sw	a0, -76(s0)
   130f8: 03 25 04 fb  	lw	a0, -80(s0)
   130fc: 13 15 15 00  	slli	a0, a0, 1
   13100: 83 25 04 fa  	lw	a1, -96(s0)
   13104: 33 65 b5 00  	or	a0, a0, a1
   13108: 23 28 a4 fa  	sw	a0, -80(s0)
   1310c: 83 35 84 fb  	ld	a1, -72(s0)
   13110: 03 35 84 fa  	ld	a0, -88(s0)
   13114: 13 45 f5 ff  	not	a0, a0
   13118: 33 05 b5 00  	add	a0, a0, a1
   1311c: 13 55 f5 43  	srai	a0, a0, 63
   13120: 23 3c a4 f8  	sd	a0, -104(s0)
   13124: 03 35 84 f9  	ld	a0, -104(s0)
   13128: 13 75 15 00  	andi	a0, a0, 1
   1312c: 23 20 a4 fa  	sw	a0, -96(s0)
   13130: 03 35 84 fb  	ld	a0, -72(s0)
   13134: 83 35 84 f9  	ld	a1, -104(s0)
   13138: b3 75 b5 00  	and	a1, a0, a1
   1313c: 03 35 84 fa  	ld	a0, -88(s0)
   13140: 33 05 b5 40  	sub	a0, a0, a1
   13144: 23 34 a4 fa  	sd	a0, -88(s0)
   13148: 6f 00 40 00  	j	0x1314c <.LBB0_52>

000000000001314c <.LBB0_52>:
   1314c: 03 25 44 fa  	lw	a0, -92(s0)
   13150: 1b 05 f5 ff  	addiw	a0, a0, -1
   13154: 23 22 a4 fa  	sw	a0, -92(s0)
   13158: 6f f0 9f f4  	j	0x130a0 <.LBB0_50>

000000000001315c <.LBB0_53>:
   1315c: 03 35 04 fb  	ld	a0, -80(s0)
   13160: 13 15 15 00  	slli	a0, a0, 1
   13164: 83 65 04 fa  	lwu	a1, -96(s0)
   13168: 33 65 b5 00  	or	a0, a0, a1
   1316c: 23 38 a4 fa  	sd	a0, -80(s0)
   13170: 03 35 04 fd  	ld	a0, -48(s0)
   13174: 93 05 00 00  	li	a1, 0
   13178: 63 0c b5 00  	beq	a0, a1, 0x13190 <.LBB0_55>
   1317c: 6f 00 40 00  	j	0x13180 <.LBB0_54>

0000000000013180 <.LBB0_54>:
   13180: 03 35 84 fa  	ld	a0, -88(s0)
   13184: 83 35 04 fd  	ld	a1, -48(s0)
   13188: 23 b0 a5 00  	sd	a0, 0(a1)
   1318c: 6f 00 40 00  	j	0x13190 <.LBB0_55>

0000000000013190 <.LBB0_55>:
   13190: 03 35 04 fb  	ld	a0, -80(s0)
   13194: 23 34 a4 fe  	sd	a0, -24(s0)
   13198: 6f 00 40 00  	j	0x1319c <.LBB0_56>

000000000001319c <.LBB0_56>:
   1319c: 03 35 84 fe  	ld	a0, -24(s0)
   131a0: 83 30 81 0e  	ld	ra, 232(sp)
   131a4: 03 34 01 0e  	ld	s0, 224(sp)
   131a8: 13 01 01 0f  	addi	sp, sp, 240
   131ac: 67 80 00 00  	ret

00000000000131b0 <__umoddi3>:
   131b0: 13 01 01 fd  	addi	sp, sp, -48
   131b4: 23 34 11 02  	sd	ra, 40(sp)
   131b8: 23 30 81 02  	sd	s0, 32(sp)
   131bc: 13 04 01 03  	addi	s0, sp, 48
   131c0: 23 34 a4 fe  	sd	a0, -24(s0)
   131c4: 23 30 b4 fe  	sd	a1, -32(s0)
   131c8: 03 35 84 fe  	ld	a0, -24(s0)
   131cc: 83 35 04 fe  	ld	a1, -32(s0)
   131d0: 13 06 84 fd  	addi	a2, s0, -40
   131d4: ef f0 0f dc  	jal	0x12794 <__udivmoddi4>
   131d8: 03 35 84 fd  	ld	a0, -40(s0)
   131dc: 83 30 81 02  	ld	ra, 40(sp)
   131e0: 03 34 01 02  	ld	s0, 32(sp)
   131e4: 13 01 01 03  	addi	sp, sp, 48
   131e8: 67 80 00 00  	ret

00000000000131ec <__overflow>:
   131ec: 13 01 01 fe  	addi	sp, sp, -32
   131f0: 23 3c 11 00  	sd	ra, 24(sp)
   131f4: 23 38 81 00  	sd	s0, 16(sp)
   131f8: 23 34 91 00  	sd	s1, 8(sp)
   131fc: 93 84 05 00  	mv	s1, a1
   13200: 13 04 05 00  	mv	s0, a0
   13204: a3 03 b1 00  	sb	a1, 7(sp)
   13208: 03 35 05 02  	ld	a0, 32(a0)
   1320c: 63 02 05 04  	beqz	a0, 0x13250 <.LBB0_5>

0000000000013210 <.LBB0_1>:
   13210: 83 35 84 02  	ld	a1, 40(s0)
   13214: 63 88 a5 00  	beq	a1, a0, 0x13224 <.LBB0_3>
   13218: 03 26 04 09  	lw	a2, 144(s0)
   1321c: 13 f5 f4 0f  	andi	a0, s1, 255
   13220: 63 16 a6 04  	bne	a2, a0, 0x1326c <.LBB0_7>

0000000000013224 <.LBB0_3>:
   13224: 83 36 84 04  	ld	a3, 72(s0)
   13228: 93 05 71 00  	addi	a1, sp, 7
   1322c: 13 06 10 00  	li	a2, 1
   13230: 93 04 10 00  	li	s1, 1
   13234: 13 05 04 00  	mv	a0, s0
   13238: e7 80 06 00  	jalr	a3
   1323c: 93 05 05 00  	mv	a1, a0
   13240: 13 05 f0 ff  	li	a0, -1
   13244: 63 9a 95 02  	bne	a1, s1, 0x13278 <.LBB0_8>
   13248: 03 45 71 00  	lbu	a0, 7(sp)
   1324c: 6f 00 c0 02  	j	0x13278 <.LBB0_8>

0000000000013250 <.LBB0_5>:
   13250: 13 05 04 00  	mv	a0, s0
   13254: ef f0 0f a7  	jal	0x124c4 <__towrite>
   13258: 93 05 05 00  	mv	a1, a0
   1325c: 13 05 f0 ff  	li	a0, -1
   13260: 63 9c 05 00  	bnez	a1, 0x13278 <.LBB0_8>
   13264: 03 35 04 02  	ld	a0, 32(s0)
   13268: 6f f0 9f fa  	j	0x13210 <.LBB0_1>

000000000001326c <.LBB0_7>:
   1326c: 13 86 15 00  	addi	a2, a1, 1
   13270: 23 34 c4 02  	sd	a2, 40(s0)
   13274: 23 80 95 00  	sb	s1, 0(a1)

0000000000013278 <.LBB0_8>:
   13278: 83 30 81 01  	ld	ra, 24(sp)
   1327c: 03 34 01 01  	ld	s0, 16(sp)
   13280: 83 34 81 00  	ld	s1, 8(sp)
   13284: 13 01 01 02  	addi	sp, sp, 32
   13288: 67 80 00 00  	ret
